 80000000 f14022f3 00000000  csrrs    x5, mhartid, x0
 80000004     4301 00000000  c.li     x6, 0x0
 80000006 00628263 00000000  beq      x5, x6, . + 0x4
 8000000a 00000797 8000000a  auipc    x15, 0x0
 8000000e 00c78793 80000016  addi     x15, x15, 12
 80000012 00078067 00000000  jalr     x0, 0x0
 80000016 40001fb7 40001000  lui      x31, 0x40001
 8000001a 104f8f93 40001104  addi     x31, x31, 260
 8000001e 301f9073 40001104  csrrw    x0, misa, x31
 80000022 7004ae17 f004a022  auipc    x28, 0x7004a
 80000026 c62e0e13 f0049c84  addi     x28, x28, -926
 8000002a 00001f97 8000102a  auipc    x31, 0x1
 8000002e c06f8f93 80000c30  addi     x31, x31, -1018
 80000032 001fef93 80000c31  ori      x31, x31, 1
 80000036 305f9073 80000c31  csrrw    x0, mtvec, x31
 8000003a 00000f97 8000003a  auipc    x31, 0x0
 8000003e 020f8f93 8000005a  addi     x31, x31, 32
 80000042 341f9073 8000005a  csrrw    x0, mepc, x31
 80000046     6f89 00002000  c.lui    x31, 0x2
 80000048 800f8f93 00001800  addi     x31, x31, -2048
 8000004c 300f9073 00001800  csrrw    x0, mstatus, x31
 80000050     4f81 00000000  c.li     x31, 0x0
 80000052 304f9073 00000000  csrrw    x0, mie, x31
 80000056 30200073 00001880  mret 
 8000005a 3e0aa037 00000000  lui      x0, 0x3e0aa
 8000005e 4df00013 00000000  addi     x0, x0, 1247
 80000062 fc4dd0b7 fc4dd000  lui      x1, -0x3b23
 80000066 3a508093 fc4dd3a5  addi     x1, x1, 933
 8000006a f1764137 f1764000  lui      x2, -0xe89c
 8000006e 22510113 f1764225  addi     x2, x2, 549
 80000072 efef91b7 efef9000  lui      x3, -0x10107
 80000076 d9918193 efef8d99  addi     x3, x3, -615
 8000007a fcc1f237 fcc1f000  lui      x4, -0x33e1
 8000007e aa020213 fcc1eaa0  addi     x4, x4, -1376
 80000082 e41252b7 e4125000  lui      x5, -0x1bedb
 80000086 ea728293 e4124ea7  addi     x5, x5, -345
 8000008a     4301 00000000  c.li     x6, 0x0
 8000008c     4381 00000000  c.li     x7, 0x0
 8000008e ffca2437 ffca2000  lui      x8, -0x35e
 80000092 07840413 ffca2078  addi     x8, x8, 120
 80000096 f34e54b7 f34e5000  lui      x9, -0xcb1b
 8000009a ee348493 f34e4ee3  addi     x9, x9, -285
 8000009e 2e831537 2e831000  lui      x10, 0x2e831
 800000a2 9e250513 2e8309e2  addi     x10, x10, -1566
 800000a6 fcaf85b7 fcaf8000  lui      x11, -0x3508
 800000aa bcb58593 fcaf7bcb  addi     x11, x11, -1077
 800000ae     4621 00000008  c.li     x12, 0x8
 800000b0 98cb36b7 98cb3000  lui      x13, -0x6734d
 800000b4 9ac68693 98cb29ac  addi     x13, x13, -1620
 800000b8 9e9fa737 9e9fa000  lui      x14, -0x61606
 800000bc 5ec70713 9e9fa5ec  addi     x14, x14, 1516
 800000c0 fb3a87b7 fb3a8000  lui      x15, -0x4c58
 800000c4 79d78793 fb3a879d  addi     x15, x15, 1949
 800000c8 80000837 80000000  lui      x16, -0x80000
 800000cc     4881 00000000  c.li     x17, 0x0
 800000ce     4929 0000000a  c.li     x18, 0xa
 800000d0 fa9929b7 fa992000  lui      x19, -0x566e
 800000d4 54f98993 fa99254f  addi     x19, x19, 1359
 800000d8     4a35 0000000d  c.li     x20, 0xd
 800000da 80000ab7 80000000  lui      x21, -0x80000
 800000de     4b2d 0000000b  c.li     x22, 0xb
 800000e0 f2745bb7 f2745000  lui      x23, -0xd8bb
 800000e4 3bfb8b93 f27453bf  addi     x23, x23, 959
 800000e8     4c01 00000000  c.li     x24, 0x0
 800000ea 80000cb7 80000000  lui      x25, -0x80000
 800000ee     4d01 00000000  c.li     x26, 0x0
 800000f0 0ce3eeb7 0ce3e000  lui      x29, 0xce3e
 800000f4 4a7e8e93 0ce3e4a7  addi     x29, x29, 1191
 800000f8 80000f37 80000000  lui      x30, -0x80000
 800000fc     4f99 00000006  c.li     x31, 0x6
 800000fe 70045d97 f00450fe  auipc    x27, 0x70045
 80000102 d66d8d93 f0044e64  addi     x27, x27, -666
 80000106     8e95 00000000  c.sub    x13, x13
 80000108 014918b3 00014000  sll      x17, x18, x20
 8000010c 01d8d413 00000000  srli     x8, x17, 29
 80000110 02d326b3 00000000  mulhsu   x13, x6, x13
 80000114 007884b3 00014000  add      x9, x17, x7
 80000118     ce85 00000000  c.beqz   x13, . + 0x38
 80000150 030000ef 80000154  jal      x1, . + 0x30
 80000180 fe9ff0ef 80000184  jal      x1, . - 0x18
 80000168 fcdff0ef 8000016c  jal      x1, . - 0x34
 80000134 02800fef 80000138  jal      x31, . + 0x28
 8000015c ff9ff0ef 80000160  jal      x1, . - 0x8
 80000154 030000ef 80000158  jal      x1, . + 0x30
 80000184 03f482b3 01860000  mul      x5, x9, x31
 80000188 02960fb3 000a0000  mul      x31, x12, x9
 8000018c     0794 f17645e5  c.addi4spn  x13, 0xf0
 8000018e 3dd34c13 000003dd  xori     x24, x6, 989
 80000192 02e03233 00000000  mulhu    x4, x0, x14
 80000196     9a9a 80000000  c.add    x21, x6
 80000198     8ecd fdff7fef  c.or     x13, x11
 8000019a     6151 f1764335  c.addi16sp 0x11
 8000019c 028da3b3 00000000  mulhsu   x7, x27, x8
 800001a0     0001 00000000  c.nop
 800001a2 053df563 00000000  bgeu     x27, x19, . + 0x4a
 800001a6     0cee 00000000  c.slli   x25, 27
 800001a8 02bae033 00000000  rem      x0, x21, x11
 800001ac 00b31713 00000000  slli     x14, x6, 11
 800001b0 0035ec63 00000000  bltu     x11, x3, . + 0x18
 800001b4 df364c13 fffffdfb  xori     x24, x12, -525
 800001b8 00d88ab3 fe00bfef  add      x21, x17, x13
 800001bc 409d5033 00000000  sra      x0, x26, x9
 800001c0 dbc9c393 0566d8f3  xori     x7, x19, -580
 800001c4 0214b4b3 0000a000  mulhu    x9, x9, x1
 800001c8 358a0713 00000365  addi     x14, x20, 856
 800001cc 03468c63 00000000  beq      x13, x20, . + 0x38
 800001d0 01c0d693 00000008  srli     x13, x1, 28
 800001d4 00e5df93 0003f2bd  srli     x31, x11, 14
 800001d8 01aa8633 fe00bfef  add      x12, x21, x26
 800001dc d4edacb7 d4eda000  lui      x25, -0x2b126
 800001e0 02928733 c0000000  mul      x14, x5, x9
 800001e4 02ce6263 00000000  bltu     x28, x12, . + 0x24
 80000208     717d f1764325  c.addi16sp -0x1
 8000020a 013e4863 00000000  blt      x28, x19, . + 0x10
 8000021a     8ffa 80000000  c.mv     x31, x30
 8000021c 40e48033 00000000  sub      x0, x9, x14
 80000220     8eb5 00000000  c.xor    x13, x13
 80000222 008b4fb3 0000000b  xor      x31, x22, x8
 80000226 01f41eb3 00000000  sll      x29, x8, x31
 8000022a 01f419b3 00000000  sll      x19, x8, x31
 8000022e     876e f0044e64  c.mv     x14, x27
 80000230     6109 f17643a5  c.addi16sp 0x8
 80000232     9afd 00000000  c.andi   x13, -0x1
 80000234 00f49863 00000000  bne      x9, x15, . + 0x10
 80000244 03b22833 00000000  mulhsu   x16, x4, x27
 80000248 ca506f37 ca506000  lui      x30, -0x35afa
 8000024c b17f4717 317f424c  auipc    x14, 0xb17f4
 80000250 00f91d63 00000000  bne      x18, x15, . + 0x1a
 8000026a b1443013 00000000  sltiu    x0, x8, -1260
 8000026e 01089713 40000000  slli     x14, x17, 16
 80000272     4b9d 00000007  c.li     x23, 0x7
 80000274 3df48113 0000a3df  addi     x2, x9, 991
 80000278 007a5cb3 00000000  srl      x25, x20, x7
 8000027c 015af463 00000000  bgeu     x21, x21, . + 0x8
 80000284 40f403b3 04c57863  sub      x7, x8, x15
 80000288 00000797 80000288  auipc    x15, 0x0
 8000028c 00c78793 80000294  addi     x15, x15, 12
 80000290 00078067 00000000  jalr     x0, 0x0
 80000294     4185 00000001  c.li     x3, 0x1
 80000296 00000073 00000000  ecall
 80000c30 0400006f 00000000  j        . + 0x40
 80000c70 340d9df3 f0044e64  csrrw    x27, mscratch, x27
 80000c74 000e0db3 f0049c84  add      x27, x28, x0
 80000c78 f84d8d93 f0049c08  addi     x27, x27, -124
 80000c7c 001da223 80000158  sw       x1, 0x4
 80000c80 002da423 0000a3df  sw       x2, 0x8
 80000c84 003da623 00000001  sw       x3, 0xc
 80000c88 004da823 00000000  sw       x4, 0x10
 80000c8c 005daa23 01860000  sw       x5, 0x14
 80000c90 006dac23 00000000  sw       x6, 0x18
 80000c94 007dae23 04c57863  sw       x7, 0x1c
 80000c98 028da023 00000000  sw       x8, 0x20
 80000c9c 029da223 0000a000  sw       x9, 0x24
 80000ca0 02ada423 2e8309e2  sw       x10, 0x28
 80000ca4 02bda623 fcaf7bcb  sw       x11, 0x2c
 80000ca8 02cda823 fe00bfef  sw       x12, 0x30
 80000cac 02ddaa23 00000000  sw       x13, 0x34
 80000cb0 02edac23 40000000  sw       x14, 0x38
 80000cb4 02fdae23 80000294  sw       x15, 0x3c
 80000cb8 050da023 00000000  sw       x16, 0x40
 80000cbc 051da223 00014000  sw       x17, 0x44
 80000cc0 052da423 0000000a  sw       x18, 0x48
 80000cc4 053da623 00000000  sw       x19, 0x4c
 80000cc8 054da823 0000000d  sw       x20, 0x50
 80000ccc 055daa23 fe00bfef  sw       x21, 0x54
 80000cd0 056dac23 0000000b  sw       x22, 0x58
 80000cd4 057dae23 00000007  sw       x23, 0x5c
 80000cd8 078da023 fffffdfb  sw       x24, 0x60
 80000cdc 079da223 00000000  sw       x25, 0x64
 80000ce0 07ada423 00000000  sw       x26, 0x68
 80000ce4 07bda623 f0049c08  sw       x27, 0x6c
 80000ce8 07cda823 f0049c84  sw       x28, 0x70
 80000cec 07ddaa23 00000000  sw       x29, 0x74
 80000cf0 07edac23 ca506000  sw       x30, 0x78
 80000cf4 07fdae23 0000000b  sw       x31, 0x7c
 80000cf8 34102ff3 80000296  csrrs    x31, mepc, x0
 80000cfc 34202ff3 0000000b  csrrs    x31, mcause, x0
 80000d00     4bad 0000000b  c.li     x23, 0xb
 80000d02 017f8d63 00000000  beq      x31, x23, . + 0x1a
 80000d1c ffffff97 7ffffd1c  auipc    x31, 0xfffff
 80000d20 2e4f8f93 80000000  addi     x31, x31, 740
 80000d24 000fa023 00000000  sw       x0, 0x0
 80000d28 001fa223 80000158  sw       x1, 0x4
 80000d2c 002fa423 0000a3df  sw       x2, 0x8
 80000d30 003fa623 00000001  sw       x3, 0xc
 80000d34 004fa823 00000000  sw       x4, 0x10
 80000d38 005faa23 01860000  sw       x5, 0x14
 80000d3c 006fac23 00000000  sw       x6, 0x18
 80000d40 007fae23 04c57863  sw       x7, 0x1c
 80000d44 028fa023 00000000  sw       x8, 0x20
 80000d48 029fa223 0000a000  sw       x9, 0x24
 80000d4c 02afa423 2e8309e2  sw       x10, 0x28
 80000d50 02bfa623 fcaf7bcb  sw       x11, 0x2c
 80000d54 02cfa823 fe00bfef  sw       x12, 0x30
 80000d58 02dfaa23 00000000  sw       x13, 0x34
 80000d5c 02efac23 40000000  sw       x14, 0x38
 80000d60 02ffae23 80000294  sw       x15, 0x3c
 80000d64 050fa023 00000000  sw       x16, 0x40
 80000d68 051fa223 00014000  sw       x17, 0x44
 80000d6c 052fa423 0000000a  sw       x18, 0x48
 80000d70 053fa623 00000000  sw       x19, 0x4c
 80000d74 054fa823 0000000d  sw       x20, 0x50
 80000d78 055faa23 fe00bfef  sw       x21, 0x54
 80000d7c 056fac23 0000000b  sw       x22, 0x58
 80000d80 057fae23 0000000b  sw       x23, 0x5c
 80000d84 078fa023 fffffdfb  sw       x24, 0x60
 80000d88 079fa223 00000000  sw       x25, 0x64
 80000d8c 07afa423 00000000  sw       x26, 0x68
 80000d90 07bfa623 f0049c08  sw       x27, 0x6c
 80000d94 07cfa823 f0049c84  sw       x28, 0x70
 80000d98 07dfaa23 00000000  sw       x29, 0x74
 80000d9c 07efac23 ca506000  sw       x30, 0x78
 80000da0 07ffae23 80000000  sw       x31, 0x7c
 80000da4 fffff797 7ffffda4  auipc    x15, 0xfffff
 80000da8 4f678793 8000029a  addi     x15, x15, 1270
 80000dac 00078067 00000000  jalr     x0, 0x0
 8000029a 70040f17 f004029a  auipc    x30, 0x70040
 8000029e d63f2323 00000001  sw       x3, -0x29a
