 80000000 4047512307 00000000  csrrs   t0, mhartid,zero
 80000004     17153 00000000  c.li    t1, 0x0
 80000006 6455907 00000000  beq     t0,t1, . + 0x4
 8000000a 1943 8000000a  auipc   a5, 0x0
 8000000e 13076371 80000016  addi    a5,a5, 12
 80000012 491623 00000000  jalr    zero, 0x0
 80000016 1073749943 40001000  lui     t6, 0x40001
 8000001a 273649555 40001104  addi    t6,t6, 260
 8000001e 807374963 40001104  csrrw   zero, misa,t6
 80000022 1879354903 f004a022  auipc   t3, 0x7004a
 80000026 3324907027 f0049c84  addi    t3,t3, -926
 8000002a 8087 8000102a  auipc   t6, 0x1
 8000002e 3228536723 80000c30  addi    t6,t6, -1018
 80000032 2092947 80000c31  ori     t6,t6, 1
 80000036 811569267 80000c31  csrrw   zero, mtvec,t6
 8000003a 3991 8000003a  auipc   t6, 0x0
 8000003e 34574227 8000005a  addi    t6,t6, 32
 80000042 874483827 8000005a  csrrw   zero, mepc,t6
 80000046     28553 00002000  c.lui   t6, 0x2
 80000048 2148503443 00001800  addi    t6,t6, -2048
 8000004c 806326387 00001800  csrrw   zero, mstatus,t6
 80000050     20353 00000000  c.li    t6, 0x0
 80000052 810520691 00000000  csrrw   zero, mie,t6
 80000056 807403635 00001880  mret 
 8000005a 1040883767 00000000  lui     zero, 0x3e0aa
 8000005e 1307574291 00000000  addi    zero,zero, 1247
 80000062 4232958135 fc4dd000  lui     ra, -0x3b23
 80000066 978354323 fc4dd3a5  addi    ra,ra, 933
 8000006a 4051058999 f1764000  lui     sp, -0xe89c
 8000006e 575734035 f1764225  addi    sp,sp, 549
 80000072 4025455031 efef9000  lui     gp, -0x10107
 80000076 3650191763 efef8d99  addi    gp,gp, -615
 8000007a 4240568887 fcc1f000  lui     tp, -0x33e1
 8000007e 2852258323 fcc1eaa0  addi    tp,tp, -1376
 80000082 3826406071 e4125000  lui     t0, -0x1bedb
 80000086 3933373075 e4124ea7  addi    t0,t0, -345
 8000008a     17153 00000000  c.li    t1, 0x0
 8000008c     17281 00000000  c.li    t2, 0x0
 8000008e 4291437623 ffca2000  lui     s0/fp, -0x35e
 80000092 126092307 ffca2078  addi    s0/fp,s0/fp, 120
 80000096 4081996983 f34e5000  lui     s1, -0xcb1b
 8000009a 3996419219 f34e4ee3  addi    s1,s1, -285
 8000009e 780342583 2e831000  lui     a0, 0x2e831
 800000a2 2653226259 2e8309e2  addi    a0,a0, -1566
 800000a6 4239361463 fcaf8000  lui     a1, -0x3508
 800000aa 3166012819 fcaf7bcb  addi    a1,a1, -1077
 800000ae     17953 00000008  c.li    a2, 0x8
 800000b0 2563454647 98cb3000  lui     a3, -0x6734d
 800000b4 2596701843 98cb29ac  addi    a3,a3, -1620
 800000b8 2661263159 9e9fa000  lui     a4, -0x61606
 800000bc 1590101779 9e9fa5ec  addi    a4,a4, 1516
 800000c0 4214917047 fb3a8000  lui     a5, -0x4c58
 800000c4 2044168083 fb3a879d  addi    a5,a5, 1949
 800000c8 2147485751 80000000  lui     a6, -0x80000
 800000cc     18561 00000000  c.li    a7, 0x0
 800000ce     18729 0000000a  c.li    s2, 0xa
 800000d0 4204341687 fa992000  lui     s3, -0x566e
 800000d4 1425639827 fa99254f  addi    s3,s3, 1359
 800000d8     18997 0000000d  c.li    s4, 0xd
 800000da 2147486391 80000000  lui     s5, -0x80000
 800000de     19245 0000000b  c.li    s6, 0xb
 800000e0 4067711927 f2745000  lui     s7, -0xd8bb
 800000e4 1006341011 f27453bf  addi    s7,s7, 959
 800000e8     19457 00000000  c.li    s8, 0x0
 800000ea 2147486903 80000000  lui     s9, -0x80000
 800000ee     19713 00000000  c.li    s10, 0x0
 800000f0 216264375 0ce3e000  lui     t4, 0xce3e
 800000f4 1249808019 0ce3e4a7  addi    t4,t4, 1191
 800000f8 2147487543 80000000  lui     t5, -0x80000
 800000fc     20377 00000006  c.li    t6, 0x6
 800000fe 1879334295 f00450fe  auipc   s11, 0x70045
 80000102 3597503891 f0044e64  addi    s11,s11, -666
 80000106     36501 00000000  c.sub   a3,a3
 80000108 21567667 00014000  sll     a7,s2,s4
 8000010c 30987283 00000000  srli    s0/fp,a7, 29
 80000110 47392435 00000000  mulhsu  a3,t1,a3
 80000114 7898291 00014000  add     s1,a7,t2
 80000118     52869 00000000  c.beqz  a3, . + 0x38
 80000150 50331887 80000154  jal     ra, . + 0x30
 80000180 4271894767 80000184  jal     ra, . - 0x18
 80000168 4242534639 8000016c  jal     ra, . - 0x34
 80000134 41947119 80000138  jal     t6, . + 0x28
 8000015c 4288671983 80000160  jal     ra, . - 0x8
 80000154 50331887 80000158  jal     ra, . + 0x30
 80000184 66355891 01860000  mul     t0,s1,t6
 80000188 43388851 000a0000  mul     t6,a2,s1
 8000018c     1940 f17645e5  c.addi4spn a3, 0xf0
 8000018e 1037257747 000003dd  xori    s8,t1, 989
 80000192 48247347 00000000  mulhu   tp,zero,a4
 80000196     39578 80000000  c.add   s5,t1
 80000198     36557 fdff7fef  c.or    a3,a1
 8000019a     24913 f1764335  c.addi16sp 0x11
 8000019c 42836915 00000000  mulhsu  t2,s11,s0/fp
 800001a0     1 00000000  c.nop
 800001a2 87946595 00000000  bgeu    s11,s3, . + 0x4a
 800001a6     3310 00000000  c.slli  s9, 27
 800001a8 45801523 00000000  rem     zero,s5,a1
 800001ac 11736851 00000000  slli    a4,t1, 11
 800001b0 3533923 00000000  bltu    a1,gp, . + 0x18
 800001b4 3744877587 fffffdfb  xori    s8,a2, -525
 800001b8 14191283 fe00bfef  add     s5,a7,a3
 800001bc 1084051507 00000000  sra     zero,s10,s1
 800001c0 3687433107 0566d8f3  xori    t2,s3, -580
 800001c4 34911411 0000a000  mulhu   s1,s1,ra
 800001c8 898238227 00000365  addi    a4,s4, 856
 800001cc 54955107 00000000  beq     a3,s4, . + 0x38
 800001d0 29415059 00000008  srli    a3,ra, 28
 800001d4 15064979 0003f2bd  srli    t6,a1, 14
 800001d8 27952691 fe00bfef  add     a2,s5,s10
 800001dc 3572346039 d4eda000  lui     s9, -0x2b126
 800001e0 43157299 c0000000  mul     a4,t0,s1
 800001e4 47080035 00000000  bltu    t3,a2, . + 0x24
 80000208     29053 f1764325  c.addi16sp -0x1
 8000020a 20858979 00000000  blt     t3,s3, . + 0x10
 8000021a     36858 80000000  c.mv    t6,t5
 8000021c 1088716851 00000000  sub     zero,s1,a4
 80000220     36533 00000000  c.xor   a3,a3
 80000222 9129907 0000000b  xor     t6,s6,s0/fp
 80000226 32775859 00000000  sll     t4,s0/fp,t6
 8000022a 32774579 00000000  sll     s3,s0/fp,t6
 8000022e     34670 f0044e64  c.mv    a4,s11
 80000230     24841 f17643a5  c.addi16sp 0x8
 80000232     39677 00000000  c.andi  a3, -0x1
 80000234 16029795 00000000  bne     s1,a5, . + 0x10
 80000244 62007347 00000000  mulhsu  a6,tp,s11
 80000248 3394268983 ca506000  lui     t5, -0x35afa
 8000024c 2977908503 317f424c  auipc   a4, 0xb17f4
 80000250 16325987 00000000  bne     s2,a5, . + 0x1a
 8000026a 2974035987 00000000  sltiu   zero,s0/fp, -1260
 8000026e 17340179 40000000  slli    a4,a7, 16
 80000272     19357 00000007  c.li    s7, 0x7
 80000274 1039434003 0000a3df  addi    sp,s1, 991
 80000278 8019123 00000000  srl     s9,s4,t2
 8000027c 22738019 00000000  bgeu    s5,s5, . + 0x8
 80000284 1089733555 04c57863  sub     t2,s0/fp,a5
 80000288 1943 80000288  auipc   a5, 0x0
 8000028c 13076371 80000294  addi    a5,a5, 12
 80000290 491623 00000000  jalr    zero, 0x0
 80000294     16773 00000001  c.li    gp, 0x1
 80000296 115 00000000  ecall
 80000c30 67108975 00000000  j        . + 0x40
 80000c70 873307635 f0044e64  csrrw   s11, mscratch,s11
 80000c74 921011 f0049c84  add     s11,t3,zero
 80000c78 4165832083 f0049c08  addi    s11,s11, -124
 80000c7c 1942051 80000158  sw      ra, 0x4
 80000c80 2991139 0000a3df  sw      sp, 0x8
 80000c84 4040227 00000001  sw      gp, 0xc
 80000c88 5089315 00000000  sw      tp, 0x10
 80000c8c 6138403 01860000  sw      t0, 0x14
 80000c90 7187491 00000000  sw      t1, 0x18
 80000c94 8236579 04c57863  sw      t2, 0x1c
 80000c98 42836003 00000000  sw      s0/fp, 0x20
 80000c9c 43885091 0000a000  sw      s1, 0x24
 80000ca0 44934179 2e8309e2  sw      a0, 0x28
 80000ca4 45983267 fcaf7bcb  sw      a1, 0x2c
 80000ca8 47032355 fe00bfef  sw      a2, 0x30
 80000cac 48081443 00000000  sw      a3, 0x34
 80000cb0 49130531 40000000  sw      a4, 0x38
 80000cb4 50179619 80000294  sw      a5, 0x3c
 80000cb8 84779043 00000000  sw      a6, 0x40
 80000cbc 85828131 00014000  sw      a7, 0x44
 80000cc0 86877219 0000000a  sw      s2, 0x48
 80000cc4 87926307 00000000  sw      s3, 0x4c
 80000cc8 88975395 0000000d  sw      s4, 0x50
 80000ccc 90024483 fe00bfef  sw      s5, 0x54
 80000cd0 91073571 0000000b  sw      s6, 0x58
 80000cd4 92122659 00000007  sw      s7, 0x5c
 80000cd8 126722083 fffffdfb  sw      s8, 0x60
 80000cdc 127771171 00000000  sw      s9, 0x64
 80000ce0 128820259 00000000  sw      s10, 0x68
 80000ce4 129869347 f0049c08  sw      s11, 0x6c
 80000ce8 130918435 f0049c84  sw      t3, 0x70
 80000cec 131967523 00000000  sw      t4, 0x74
 80000cf0 133016611 ca506000  sw      t5, 0x78
 80000cf4 134065699 0000000b  sw      t6, 0x7c
 80000cf8 873476083 80000296  csrrs   t6, mepc,zero
 80000cfc 874524659 0000000b  csrrs   t6, mcause,zero
 80000d00     19373 0000000b  c.li    s7, 0xb
 80000d02 25136483 00000000  beq     t6,s7, . + 0x1a
 80000d1c 4294967191 7ffffd1c  auipc   t6, 0xfffff
 80000d20 776966035 80000000  addi    t6,t6, 740
 80000d24 1024035 00000000  sw      zero, 0x0
 80000d28 2073123 80000158  sw      ra, 0x4
 80000d2c 3122211 0000a3df  sw      sp, 0x8
 80000d30 4171299 00000001  sw      gp, 0xc
 80000d34 5220387 00000000  sw      tp, 0x10
 80000d38 6269475 01860000  sw      t0, 0x14
 80000d3c 7318563 00000000  sw      t1, 0x18
 80000d40 8367651 04c57863  sw      t2, 0x1c
 80000d44 42967075 00000000  sw      s0/fp, 0x20
 80000d48 44016163 0000a000  sw      s1, 0x24
 80000d4c 45065251 2e8309e2  sw      a0, 0x28
 80000d50 46114339 fcaf7bcb  sw      a1, 0x2c
 80000d54 47163427 fe00bfef  sw      a2, 0x30
 80000d58 48212515 00000000  sw      a3, 0x34
 80000d5c 49261603 40000000  sw      a4, 0x38
 80000d60 50310691 80000294  sw      a5, 0x3c
 80000d64 84910115 00000000  sw      a6, 0x40
 80000d68 85959203 00014000  sw      a7, 0x44
 80000d6c 87008291 0000000a  sw      s2, 0x48
 80000d70 88057379 00000000  sw      s3, 0x4c
 80000d74 89106467 0000000d  sw      s4, 0x50
 80000d78 90155555 fe00bfef  sw      s5, 0x54
 80000d7c 91204643 0000000b  sw      s6, 0x58
 80000d80 92253731 0000000b  sw      s7, 0x5c
 80000d84 126853155 fffffdfb  sw      s8, 0x60
 80000d88 127902243 00000000  sw      s9, 0x64
 80000d8c 128951331 00000000  sw      s10, 0x68
 80000d90 130000419 f0049c08  sw      s11, 0x6c
 80000d94 131049507 f0049c84  sw      t3, 0x70
 80000d98 132098595 00000000  sw      t4, 0x74
 80000d9c 133147683 ca506000  sw      t5, 0x78
 80000da0 134196771 80000000  sw      t6, 0x7c
 80000da4 4294965143 7ffffda4  auipc   a5, 0xfffff
 80000da8 1332184979 8000029a  addi    a5,a5, 1270
 80000dac 491623 00000000  jalr    zero, 0x0
 8000029a 1879314199 f004029a  auipc   t5, 0x70040
 8000029e 3594461987 00000001  sw      gp, -0x29a
