
riscv_jump_stress_test_0.exe:     file format elf32-littleriscv


Disassembly of section .text:

80000000 <_start>:
80000000:	f14022f3          	csrr	t0,mhartid
80000004:	4301                	li	t1,0
80000006:	00628263          	beq	t0,t1,8000000a <_start+0xa>
8000000a:	00000797          	auipc	a5,0x0
8000000e:	00c78793          	addi	a5,a5,12 # 80000016 <h0_start>
80000012:	00078067          	jr	a5

80000016 <h0_start>:
80000016:	40001fb7          	lui	t6,0x40001
8000001a:	104f8f93          	addi	t6,t6,260 # 40001104 <_start-0x3fffeefc>
8000001e:	301f9073          	csrw	misa,t6

80000022 <kernel_sp>:
80000022:	7004ae17          	auipc	t3,0x7004a
80000026:	c62e0e13          	addi	t3,t3,-926 # f0049c84 <kernel_stack_end>

8000002a <trap_vec_init>:
8000002a:	00001f97          	auipc	t6,0x1
8000002e:	c06f8f93          	addi	t6,t6,-1018 # 80000c30 <mtvec_handler>
80000032:	001fef93          	ori	t6,t6,1
80000036:	305f9073          	csrw	mtvec,t6

8000003a <mepc_setup>:
8000003a:	00000f97          	auipc	t6,0x0
8000003e:	020f8f93          	addi	t6,t6,32 # 8000005a <init>
80000042:	341f9073          	csrw	mepc,t6

80000046 <init_machine_mode>:
80000046:	6f89                	lui	t6,0x2
80000048:	800f8f93          	addi	t6,t6,-2048 # 1800 <_start-0x7fffe800>
8000004c:	300f9073          	csrw	mstatus,t6
80000050:	4f81                	li	t6,0
80000052:	304f9073          	csrw	mie,t6
80000056:	30200073          	mret

8000005a <init>:
8000005a:	3e0aa037          	lui	zero,0x3e0aa
8000005e:	4df00013          	li	zero,1247
80000062:	fc4dd0b7          	lui	ra,0xfc4dd
80000066:	3a508093          	addi	ra,ra,933 # fc4dd3a5 <STACK+0xc492715>
8000006a:	f1764137          	lui	sp,0xf1764
8000006e:	22510113          	addi	sp,sp,549 # f1764225 <STACK+0x1719595>
80000072:	efef91b7          	lui	gp,0xefef9
80000076:	d9918193          	addi	gp,gp,-615 # efef8d99 <STACK+0xffeae109>
8000007a:	fcc1f237          	lui	tp,0xfcc1f
8000007e:	aa020213          	addi	tp,tp,-1376 # fcc1eaa0 <STACK+0xcbd3e10>
80000082:	e41252b7          	lui	t0,0xe4125
80000086:	ea728293          	addi	t0,t0,-345 # e4124ea7 <STACK+0xf40da217>
8000008a:	4301                	li	t1,0
8000008c:	4381                	li	t2,0
8000008e:	ffca2437          	lui	s0,0xffca2
80000092:	07840413          	addi	s0,s0,120 # ffca2078 <STACK+0xfc573e8>
80000096:	f34e54b7          	lui	s1,0xf34e5
8000009a:	ee348493          	addi	s1,s1,-285 # f34e4ee3 <STACK+0x349a253>
8000009e:	2e831537          	lui	a0,0x2e831
800000a2:	9e250513          	addi	a0,a0,-1566 # 2e8309e2 <_start-0x517cf61e>
800000a6:	fcaf85b7          	lui	a1,0xfcaf8
800000aa:	bcb58593          	addi	a1,a1,-1077 # fcaf7bcb <STACK+0xcaacf3b>
800000ae:	4621                	li	a2,8
800000b0:	98cb36b7          	lui	a3,0x98cb3
800000b4:	9ac68693          	addi	a3,a3,-1620 # 98cb29ac <STACK+0xa8c67d1c>
800000b8:	9e9fa737          	lui	a4,0x9e9fa
800000bc:	5ec70713          	addi	a4,a4,1516 # 9e9fa5ec <STACK+0xae9af95c>
800000c0:	fb3a87b7          	lui	a5,0xfb3a8
800000c4:	79d78793          	addi	a5,a5,1949 # fb3a879d <STACK+0xb35db0d>
800000c8:	80000837          	lui	a6,0x80000
800000cc:	4881                	li	a7,0
800000ce:	4929                	li	s2,10
800000d0:	fa9929b7          	lui	s3,0xfa992
800000d4:	54f98993          	addi	s3,s3,1359 # fa99254f <STACK+0xa9478bf>
800000d8:	4a35                	li	s4,13
800000da:	80000ab7          	lui	s5,0x80000
800000de:	4b2d                	li	s6,11
800000e0:	f2745bb7          	lui	s7,0xf2745
800000e4:	3bfb8b93          	addi	s7,s7,959 # f27453bf <STACK+0x26fa72f>
800000e8:	4c01                	li	s8,0
800000ea:	80000cb7          	lui	s9,0x80000
800000ee:	4d01                	li	s10,0
800000f0:	0ce3eeb7          	lui	t4,0xce3e
800000f4:	4a7e8e93          	addi	t4,t4,1191 # ce3e4a7 <_start-0x731c1b59>
800000f8:	80000f37          	lui	t5,0x80000
800000fc:	4f99                	li	t6,6
800000fe:	70045d97          	auipc	s11,0x70045
80000102:	d66d8d93          	addi	s11,s11,-666 # f0044e64 <user_stack_end>

80000106 <main>:
80000106:	8e95                	sub	a3,a3,a3
80000108:	014918b3          	sll	a7,s2,s4
8000010c:	01d8d413          	srli	s0,a7,0x1d
80000110:	02d326b3          	mulhsu	a3,t1,a3
80000114:	007884b3          	add	s1,a7,t2
80000118:	ce85                	beqz	a3,80000150 <main_0+0x30>
8000011a:	0494                	addi	a3,sp,576
8000011c:	055d4063          	blt	s10,s5,8000015c <main_0+0x3c>

80000120 <main_0>:
80000120:	00400a6f          	jal	s4,80000124 <main_0+0x4>
80000124:	020000ef          	jal	ra,80000144 <main_0+0x24>
80000128:	014003ef          	jal	t2,8000013c <main_0+0x1c>
8000012c:	038000ef          	jal	ra,80000164 <main_0+0x44>
80000130:	020000ef          	jal	ra,80000150 <main_0+0x30>
80000134:	02800fef          	jal	t6,8000015c <main_0+0x3c>
80000138:	ff5ff0ef          	jal	ra,8000012c <main_0+0xc>
8000013c:	010000ef          	jal	ra,8000014c <main_0+0x2c>
80000140:	038000ef          	jal	ra,80000178 <main_0+0x58>
80000144:	004008ef          	jal	a7,80000148 <main_0+0x28>
80000148:	034000ef          	jal	ra,8000017c <main_0+0x5c>
8000014c:	00c00fef          	jal	t6,80000158 <main_0+0x38>
80000150:	030000ef          	jal	ra,80000180 <main_0+0x60>
80000154:	030000ef          	jal	ra,80000184 <main_0+0x64>
80000158:	014008ef          	jal	a7,8000016c <main_0+0x4c>
8000015c:	ff9ff0ef          	jal	ra,80000154 <main_0+0x34>
80000160:	01400a6f          	jal	s4,80000174 <main_0+0x54>
80000164:	00c0016f          	jal	sp,80000170 <main_0+0x50>
80000168:	fcdff0ef          	jal	ra,80000134 <main_0+0x14>
8000016c:	fcdff2ef          	jal	t0,80000138 <main_0+0x18>
80000170:	fc1ff0ef          	jal	ra,80000130 <main_0+0x10>
80000174:	fb5ff0ef          	jal	ra,80000128 <main_0+0x8>
80000178:	fe9ff0ef          	jal	ra,80000160 <main_0+0x40>
8000017c:	fc5ff0ef          	jal	ra,80000140 <main_0+0x20>
80000180:	fe9ff0ef          	jal	ra,80000168 <main_0+0x48>
80000184:	03f482b3          	mul	t0,s1,t6
80000188:	02960fb3          	mul	t6,a2,s1
8000018c:	0794                	addi	a3,sp,960
8000018e:	3dd34c13          	xori	s8,t1,989
80000192:	02e03233          	mulhu	tp,zero,a4
80000196:	9a9a                	add	s5,s5,t1
80000198:	8ecd                	or	a3,a3,a1
8000019a:	6151                	addi	sp,sp,272
8000019c:	028da3b3          	mulhsu	t2,s11,s0
800001a0:	0001                	nop
800001a2:	053df563          	bgeu	s11,s3,800001ec <main_0+0xcc>
800001a6:	0cee                	slli	s9,s9,0x1b
800001a8:	02bae033          	rem	zero,s5,a1
800001ac:	00b31713          	slli	a4,t1,0xb
800001b0:	0035ec63          	bltu	a1,gp,800001c8 <main_0+0xa8>
800001b4:	df364c13          	xori	s8,a2,-525
800001b8:	00d88ab3          	add	s5,a7,a3
800001bc:	409d5033          	sra	zero,s10,s1
800001c0:	dbc9c393          	xori	t2,s3,-580
800001c4:	0214b4b3          	mulhu	s1,s1,ra
800001c8:	358a0713          	addi	a4,s4,856
800001cc:	03468c63          	beq	a3,s4,80000204 <main_0+0xe4>
800001d0:	01c0d693          	srli	a3,ra,0x1c
800001d4:	00e5df93          	srli	t6,a1,0xe
800001d8:	01aa8633          	add	a2,s5,s10
800001dc:	d4edacb7          	lui	s9,0xd4eda
800001e0:	02928733          	mul	a4,t0,s1
800001e4:	02ce6263          	bltu	t3,a2,80000208 <main_0+0xe8>
800001e8:	20c1c993          	xori	s3,gp,524
800001ec:	00f5                	addi	ra,ra,29
800001ee:	00c2d293          	srli	t0,t0,0xc
800001f2:	01353433          	sltu	s0,a0,s3
800001f6:	004cb133          	sltu	sp,s9,tp
800001fa:	62ed                	lui	t0,0x1b
800001fc:	8e8d                	sub	a3,a3,a1
800001fe:	9ef6                	add	t4,t4,t4
80000200:	035d5f33          	divu	t5,s10,s5
80000204:	01241913          	slli	s2,s0,0x12
80000208:	717d                	addi	sp,sp,-16
8000020a:	013e4863          	blt	t3,s3,8000021a <main_0+0xfa>
8000020e:	00197533          	and	a0,s2,ra
80000212:	7a328c93          	addi	s9,t0,1955 # 1b7a3 <_start-0x7ffe485d>
80000216:	033d05b3          	mul	a1,s10,s3
8000021a:	8ffa                	mv	t6,t5
8000021c:	40e48033          	sub	zero,s1,a4
80000220:	8eb5                	xor	a3,a3,a3
80000222:	008b4fb3          	xor	t6,s6,s0
80000226:	01f41eb3          	sll	t4,s0,t6
8000022a:	01f419b3          	sll	s3,s0,t6
8000022e:	876e                	mv	a4,s11
80000230:	6109                	addi	sp,sp,128
80000232:	9afd                	andi	a3,a3,-1
80000234:	00f49863          	bne	s1,a5,80000244 <main_0+0x124>
80000238:	86dd                	srai	a3,a3,0x17
8000023a:	ae88fe93          	andi	t4,a7,-1304
8000023e:	8ef5                	and	a3,a3,a3
80000240:	02a2bfb3          	mulhu	t6,t0,a0
80000244:	03b22833          	mulhsu	a6,tp,s11
80000248:	ca506f37          	lui	t5,0xca506
8000024c:	b17f4717          	auipc	a4,0xb17f4
80000250:	00f91d63          	bne	s2,a5,8000026a <main_0+0x14a>
80000254:	86a1                	srai	a3,a3,0x8
80000256:	00339a13          	slli	s4,t2,0x3
8000025a:	2b9f4393          	xori	t2,t5,697
8000025e:	9ac6                	add	s5,s5,a7
80000260:	4465                	li	s0,25
80000262:	006e62b3          	or	t0,t3,t1
80000266:	00a96f63          	bltu	s2,a0,80000284 <main_0+0x164>
8000026a:	b1443013          	sltiu	zero,s0,-1260
8000026e:	01089713          	slli	a4,a7,0x10
80000272:	4b9d                	li	s7,7
80000274:	3df48113          	addi	sp,s1,991
80000278:	007a5cb3          	srl	s9,s4,t2
8000027c:	015af463          	bgeu	s5,s5,80000284 <main_0+0x164>
80000280:	01334b33          	xor	s6,t1,s3
80000284:	40f403b3          	sub	t2,s0,a5
80000288:	00000797          	auipc	a5,0x0
8000028c:	00c78793          	addi	a5,a5,12 # 80000294 <test_done>
80000290:	00078067          	jr	a5

80000294 <test_done>:
80000294:	4185                	li	gp,1
80000296:	00000073          	ecall

8000029a <write_tohost>:
8000029a:	70040f17          	auipc	t5,0x70040
8000029e:	d63f2323          	sw	gp,-666(t5) # f0040000 <tohost>

800002a2 <_exit>:
800002a2:	bfe5                	j	8000029a <write_tohost>

800002a4 <instr_end>:
800002a4:	0001                	nop

800002a6 <mmode_intr_vector_1>:
800002a6:	340d9df3          	csrrw	s11,mscratch,s11
800002aa:	000e0db3          	add	s11,t3,zero
800002ae:	f84d8d93          	addi	s11,s11,-124
800002b2:	001da223          	sw	ra,4(s11)
800002b6:	002da423          	sw	sp,8(s11)
800002ba:	003da623          	sw	gp,12(s11)
800002be:	004da823          	sw	tp,16(s11)
800002c2:	005daa23          	sw	t0,20(s11)
800002c6:	006dac23          	sw	t1,24(s11)
800002ca:	007dae23          	sw	t2,28(s11)
800002ce:	028da023          	sw	s0,32(s11)
800002d2:	029da223          	sw	s1,36(s11)
800002d6:	02ada423          	sw	a0,40(s11)
800002da:	02bda623          	sw	a1,44(s11)
800002de:	02cda823          	sw	a2,48(s11)
800002e2:	02ddaa23          	sw	a3,52(s11)
800002e6:	02edac23          	sw	a4,56(s11)
800002ea:	02fdae23          	sw	a5,60(s11)
800002ee:	050da023          	sw	a6,64(s11)
800002f2:	051da223          	sw	a7,68(s11)
800002f6:	052da423          	sw	s2,72(s11)
800002fa:	053da623          	sw	s3,76(s11)
800002fe:	054da823          	sw	s4,80(s11)
80000302:	055daa23          	sw	s5,84(s11)
80000306:	056dac23          	sw	s6,88(s11)
8000030a:	057dae23          	sw	s7,92(s11)
8000030e:	078da023          	sw	s8,96(s11)
80000312:	079da223          	sw	s9,100(s11)
80000316:	07ada423          	sw	s10,104(s11)
8000031a:	07bda623          	sw	s11,108(s11)
8000031e:	07cda823          	sw	t3,112(s11)
80000322:	07ddaa23          	sw	t4,116(s11)
80000326:	07edac23          	sw	t5,120(s11)
8000032a:	07fdae23          	sw	t6,124(s11)
8000032e:	34202ff3          	csrr	t6,mcause
80000332:	01ffdf93          	srli	t6,t6,0x1f
80000336:	000f8463          	beqz	t6,8000033e <mmode_intr_vector_1+0x98>
8000033a:	30f0006f          	j	80000e48 <mmode_intr_handler>
8000033e:	00000797          	auipc	a5,0x0
80000342:	f5678793          	addi	a5,a5,-170 # 80000294 <test_done>
80000346:	00078067          	jr	a5

8000034a <mmode_intr_vector_2>:
8000034a:	340d9df3          	csrrw	s11,mscratch,s11
8000034e:	000e0db3          	add	s11,t3,zero
80000352:	f84d8d93          	addi	s11,s11,-124
80000356:	001da223          	sw	ra,4(s11)
8000035a:	002da423          	sw	sp,8(s11)
8000035e:	003da623          	sw	gp,12(s11)
80000362:	004da823          	sw	tp,16(s11)
80000366:	005daa23          	sw	t0,20(s11)
8000036a:	006dac23          	sw	t1,24(s11)
8000036e:	007dae23          	sw	t2,28(s11)
80000372:	028da023          	sw	s0,32(s11)
80000376:	029da223          	sw	s1,36(s11)
8000037a:	02ada423          	sw	a0,40(s11)
8000037e:	02bda623          	sw	a1,44(s11)
80000382:	02cda823          	sw	a2,48(s11)
80000386:	02ddaa23          	sw	a3,52(s11)
8000038a:	02edac23          	sw	a4,56(s11)
8000038e:	02fdae23          	sw	a5,60(s11)
80000392:	050da023          	sw	a6,64(s11)
80000396:	051da223          	sw	a7,68(s11)
8000039a:	052da423          	sw	s2,72(s11)
8000039e:	053da623          	sw	s3,76(s11)
800003a2:	054da823          	sw	s4,80(s11)
800003a6:	055daa23          	sw	s5,84(s11)
800003aa:	056dac23          	sw	s6,88(s11)
800003ae:	057dae23          	sw	s7,92(s11)
800003b2:	078da023          	sw	s8,96(s11)
800003b6:	079da223          	sw	s9,100(s11)
800003ba:	07ada423          	sw	s10,104(s11)
800003be:	07bda623          	sw	s11,108(s11)
800003c2:	07cda823          	sw	t3,112(s11)
800003c6:	07ddaa23          	sw	t4,116(s11)
800003ca:	07edac23          	sw	t5,120(s11)
800003ce:	07fdae23          	sw	t6,124(s11)
800003d2:	34202ff3          	csrr	t6,mcause
800003d6:	01ffdf93          	srli	t6,t6,0x1f
800003da:	000f8463          	beqz	t6,800003e2 <mmode_intr_vector_2+0x98>
800003de:	26b0006f          	j	80000e48 <mmode_intr_handler>
800003e2:	00000797          	auipc	a5,0x0
800003e6:	eb278793          	addi	a5,a5,-334 # 80000294 <test_done>
800003ea:	00078067          	jr	a5

800003ee <mmode_intr_vector_3>:
800003ee:	340d9df3          	csrrw	s11,mscratch,s11
800003f2:	000e0db3          	add	s11,t3,zero
800003f6:	f84d8d93          	addi	s11,s11,-124
800003fa:	001da223          	sw	ra,4(s11)
800003fe:	002da423          	sw	sp,8(s11)
80000402:	003da623          	sw	gp,12(s11)
80000406:	004da823          	sw	tp,16(s11)
8000040a:	005daa23          	sw	t0,20(s11)
8000040e:	006dac23          	sw	t1,24(s11)
80000412:	007dae23          	sw	t2,28(s11)
80000416:	028da023          	sw	s0,32(s11)
8000041a:	029da223          	sw	s1,36(s11)
8000041e:	02ada423          	sw	a0,40(s11)
80000422:	02bda623          	sw	a1,44(s11)
80000426:	02cda823          	sw	a2,48(s11)
8000042a:	02ddaa23          	sw	a3,52(s11)
8000042e:	02edac23          	sw	a4,56(s11)
80000432:	02fdae23          	sw	a5,60(s11)
80000436:	050da023          	sw	a6,64(s11)
8000043a:	051da223          	sw	a7,68(s11)
8000043e:	052da423          	sw	s2,72(s11)
80000442:	053da623          	sw	s3,76(s11)
80000446:	054da823          	sw	s4,80(s11)
8000044a:	055daa23          	sw	s5,84(s11)
8000044e:	056dac23          	sw	s6,88(s11)
80000452:	057dae23          	sw	s7,92(s11)
80000456:	078da023          	sw	s8,96(s11)
8000045a:	079da223          	sw	s9,100(s11)
8000045e:	07ada423          	sw	s10,104(s11)
80000462:	07bda623          	sw	s11,108(s11)
80000466:	07cda823          	sw	t3,112(s11)
8000046a:	07ddaa23          	sw	t4,116(s11)
8000046e:	07edac23          	sw	t5,120(s11)
80000472:	07fdae23          	sw	t6,124(s11)
80000476:	34202ff3          	csrr	t6,mcause
8000047a:	01ffdf93          	srli	t6,t6,0x1f
8000047e:	000f8463          	beqz	t6,80000486 <mmode_intr_vector_3+0x98>
80000482:	1c70006f          	j	80000e48 <mmode_intr_handler>
80000486:	00000797          	auipc	a5,0x0
8000048a:	e0e78793          	addi	a5,a5,-498 # 80000294 <test_done>
8000048e:	00078067          	jr	a5

80000492 <mmode_intr_vector_4>:
80000492:	340d9df3          	csrrw	s11,mscratch,s11
80000496:	000e0db3          	add	s11,t3,zero
8000049a:	f84d8d93          	addi	s11,s11,-124
8000049e:	001da223          	sw	ra,4(s11)
800004a2:	002da423          	sw	sp,8(s11)
800004a6:	003da623          	sw	gp,12(s11)
800004aa:	004da823          	sw	tp,16(s11)
800004ae:	005daa23          	sw	t0,20(s11)
800004b2:	006dac23          	sw	t1,24(s11)
800004b6:	007dae23          	sw	t2,28(s11)
800004ba:	028da023          	sw	s0,32(s11)
800004be:	029da223          	sw	s1,36(s11)
800004c2:	02ada423          	sw	a0,40(s11)
800004c6:	02bda623          	sw	a1,44(s11)
800004ca:	02cda823          	sw	a2,48(s11)
800004ce:	02ddaa23          	sw	a3,52(s11)
800004d2:	02edac23          	sw	a4,56(s11)
800004d6:	02fdae23          	sw	a5,60(s11)
800004da:	050da023          	sw	a6,64(s11)
800004de:	051da223          	sw	a7,68(s11)
800004e2:	052da423          	sw	s2,72(s11)
800004e6:	053da623          	sw	s3,76(s11)
800004ea:	054da823          	sw	s4,80(s11)
800004ee:	055daa23          	sw	s5,84(s11)
800004f2:	056dac23          	sw	s6,88(s11)
800004f6:	057dae23          	sw	s7,92(s11)
800004fa:	078da023          	sw	s8,96(s11)
800004fe:	079da223          	sw	s9,100(s11)
80000502:	07ada423          	sw	s10,104(s11)
80000506:	07bda623          	sw	s11,108(s11)
8000050a:	07cda823          	sw	t3,112(s11)
8000050e:	07ddaa23          	sw	t4,116(s11)
80000512:	07edac23          	sw	t5,120(s11)
80000516:	07fdae23          	sw	t6,124(s11)
8000051a:	34202ff3          	csrr	t6,mcause
8000051e:	01ffdf93          	srli	t6,t6,0x1f
80000522:	000f8463          	beqz	t6,8000052a <mmode_intr_vector_4+0x98>
80000526:	1230006f          	j	80000e48 <mmode_intr_handler>
8000052a:	00000797          	auipc	a5,0x0
8000052e:	d6a78793          	addi	a5,a5,-662 # 80000294 <test_done>
80000532:	00078067          	jr	a5

80000536 <mmode_intr_vector_5>:
80000536:	340d9df3          	csrrw	s11,mscratch,s11
8000053a:	000e0db3          	add	s11,t3,zero
8000053e:	f84d8d93          	addi	s11,s11,-124
80000542:	001da223          	sw	ra,4(s11)
80000546:	002da423          	sw	sp,8(s11)
8000054a:	003da623          	sw	gp,12(s11)
8000054e:	004da823          	sw	tp,16(s11)
80000552:	005daa23          	sw	t0,20(s11)
80000556:	006dac23          	sw	t1,24(s11)
8000055a:	007dae23          	sw	t2,28(s11)
8000055e:	028da023          	sw	s0,32(s11)
80000562:	029da223          	sw	s1,36(s11)
80000566:	02ada423          	sw	a0,40(s11)
8000056a:	02bda623          	sw	a1,44(s11)
8000056e:	02cda823          	sw	a2,48(s11)
80000572:	02ddaa23          	sw	a3,52(s11)
80000576:	02edac23          	sw	a4,56(s11)
8000057a:	02fdae23          	sw	a5,60(s11)
8000057e:	050da023          	sw	a6,64(s11)
80000582:	051da223          	sw	a7,68(s11)
80000586:	052da423          	sw	s2,72(s11)
8000058a:	053da623          	sw	s3,76(s11)
8000058e:	054da823          	sw	s4,80(s11)
80000592:	055daa23          	sw	s5,84(s11)
80000596:	056dac23          	sw	s6,88(s11)
8000059a:	057dae23          	sw	s7,92(s11)
8000059e:	078da023          	sw	s8,96(s11)
800005a2:	079da223          	sw	s9,100(s11)
800005a6:	07ada423          	sw	s10,104(s11)
800005aa:	07bda623          	sw	s11,108(s11)
800005ae:	07cda823          	sw	t3,112(s11)
800005b2:	07ddaa23          	sw	t4,116(s11)
800005b6:	07edac23          	sw	t5,120(s11)
800005ba:	07fdae23          	sw	t6,124(s11)
800005be:	34202ff3          	csrr	t6,mcause
800005c2:	01ffdf93          	srli	t6,t6,0x1f
800005c6:	000f8463          	beqz	t6,800005ce <mmode_intr_vector_5+0x98>
800005ca:	07f0006f          	j	80000e48 <mmode_intr_handler>
800005ce:	00000797          	auipc	a5,0x0
800005d2:	cc678793          	addi	a5,a5,-826 # 80000294 <test_done>
800005d6:	00078067          	jr	a5

800005da <mmode_intr_vector_6>:
800005da:	340d9df3          	csrrw	s11,mscratch,s11
800005de:	000e0db3          	add	s11,t3,zero
800005e2:	f84d8d93          	addi	s11,s11,-124
800005e6:	001da223          	sw	ra,4(s11)
800005ea:	002da423          	sw	sp,8(s11)
800005ee:	003da623          	sw	gp,12(s11)
800005f2:	004da823          	sw	tp,16(s11)
800005f6:	005daa23          	sw	t0,20(s11)
800005fa:	006dac23          	sw	t1,24(s11)
800005fe:	007dae23          	sw	t2,28(s11)
80000602:	028da023          	sw	s0,32(s11)
80000606:	029da223          	sw	s1,36(s11)
8000060a:	02ada423          	sw	a0,40(s11)
8000060e:	02bda623          	sw	a1,44(s11)
80000612:	02cda823          	sw	a2,48(s11)
80000616:	02ddaa23          	sw	a3,52(s11)
8000061a:	02edac23          	sw	a4,56(s11)
8000061e:	02fdae23          	sw	a5,60(s11)
80000622:	050da023          	sw	a6,64(s11)
80000626:	051da223          	sw	a7,68(s11)
8000062a:	052da423          	sw	s2,72(s11)
8000062e:	053da623          	sw	s3,76(s11)
80000632:	054da823          	sw	s4,80(s11)
80000636:	055daa23          	sw	s5,84(s11)
8000063a:	056dac23          	sw	s6,88(s11)
8000063e:	057dae23          	sw	s7,92(s11)
80000642:	078da023          	sw	s8,96(s11)
80000646:	079da223          	sw	s9,100(s11)
8000064a:	07ada423          	sw	s10,104(s11)
8000064e:	07bda623          	sw	s11,108(s11)
80000652:	07cda823          	sw	t3,112(s11)
80000656:	07ddaa23          	sw	t4,116(s11)
8000065a:	07edac23          	sw	t5,120(s11)
8000065e:	07fdae23          	sw	t6,124(s11)
80000662:	34202ff3          	csrr	t6,mcause
80000666:	01ffdf93          	srli	t6,t6,0x1f
8000066a:	000f8363          	beqz	t6,80000670 <mmode_intr_vector_6+0x96>
8000066e:	afe9                	j	80000e48 <mmode_intr_handler>
80000670:	00000797          	auipc	a5,0x0
80000674:	c2478793          	addi	a5,a5,-988 # 80000294 <test_done>
80000678:	00078067          	jr	a5

8000067c <mmode_intr_vector_7>:
8000067c:	340d9df3          	csrrw	s11,mscratch,s11
80000680:	000e0db3          	add	s11,t3,zero
80000684:	f84d8d93          	addi	s11,s11,-124
80000688:	001da223          	sw	ra,4(s11)
8000068c:	002da423          	sw	sp,8(s11)
80000690:	003da623          	sw	gp,12(s11)
80000694:	004da823          	sw	tp,16(s11)
80000698:	005daa23          	sw	t0,20(s11)
8000069c:	006dac23          	sw	t1,24(s11)
800006a0:	007dae23          	sw	t2,28(s11)
800006a4:	028da023          	sw	s0,32(s11)
800006a8:	029da223          	sw	s1,36(s11)
800006ac:	02ada423          	sw	a0,40(s11)
800006b0:	02bda623          	sw	a1,44(s11)
800006b4:	02cda823          	sw	a2,48(s11)
800006b8:	02ddaa23          	sw	a3,52(s11)
800006bc:	02edac23          	sw	a4,56(s11)
800006c0:	02fdae23          	sw	a5,60(s11)
800006c4:	050da023          	sw	a6,64(s11)
800006c8:	051da223          	sw	a7,68(s11)
800006cc:	052da423          	sw	s2,72(s11)
800006d0:	053da623          	sw	s3,76(s11)
800006d4:	054da823          	sw	s4,80(s11)
800006d8:	055daa23          	sw	s5,84(s11)
800006dc:	056dac23          	sw	s6,88(s11)
800006e0:	057dae23          	sw	s7,92(s11)
800006e4:	078da023          	sw	s8,96(s11)
800006e8:	079da223          	sw	s9,100(s11)
800006ec:	07ada423          	sw	s10,104(s11)
800006f0:	07bda623          	sw	s11,108(s11)
800006f4:	07cda823          	sw	t3,112(s11)
800006f8:	07ddaa23          	sw	t4,116(s11)
800006fc:	07edac23          	sw	t5,120(s11)
80000700:	07fdae23          	sw	t6,124(s11)
80000704:	34202ff3          	csrr	t6,mcause
80000708:	01ffdf93          	srli	t6,t6,0x1f
8000070c:	000f8363          	beqz	t6,80000712 <mmode_intr_vector_7+0x96>
80000710:	af25                	j	80000e48 <mmode_intr_handler>
80000712:	00000797          	auipc	a5,0x0
80000716:	b8278793          	addi	a5,a5,-1150 # 80000294 <test_done>
8000071a:	00078067          	jr	a5

8000071e <mmode_intr_vector_8>:
8000071e:	340d9df3          	csrrw	s11,mscratch,s11
80000722:	000e0db3          	add	s11,t3,zero
80000726:	f84d8d93          	addi	s11,s11,-124
8000072a:	001da223          	sw	ra,4(s11)
8000072e:	002da423          	sw	sp,8(s11)
80000732:	003da623          	sw	gp,12(s11)
80000736:	004da823          	sw	tp,16(s11)
8000073a:	005daa23          	sw	t0,20(s11)
8000073e:	006dac23          	sw	t1,24(s11)
80000742:	007dae23          	sw	t2,28(s11)
80000746:	028da023          	sw	s0,32(s11)
8000074a:	029da223          	sw	s1,36(s11)
8000074e:	02ada423          	sw	a0,40(s11)
80000752:	02bda623          	sw	a1,44(s11)
80000756:	02cda823          	sw	a2,48(s11)
8000075a:	02ddaa23          	sw	a3,52(s11)
8000075e:	02edac23          	sw	a4,56(s11)
80000762:	02fdae23          	sw	a5,60(s11)
80000766:	050da023          	sw	a6,64(s11)
8000076a:	051da223          	sw	a7,68(s11)
8000076e:	052da423          	sw	s2,72(s11)
80000772:	053da623          	sw	s3,76(s11)
80000776:	054da823          	sw	s4,80(s11)
8000077a:	055daa23          	sw	s5,84(s11)
8000077e:	056dac23          	sw	s6,88(s11)
80000782:	057dae23          	sw	s7,92(s11)
80000786:	078da023          	sw	s8,96(s11)
8000078a:	079da223          	sw	s9,100(s11)
8000078e:	07ada423          	sw	s10,104(s11)
80000792:	07bda623          	sw	s11,108(s11)
80000796:	07cda823          	sw	t3,112(s11)
8000079a:	07ddaa23          	sw	t4,116(s11)
8000079e:	07edac23          	sw	t5,120(s11)
800007a2:	07fdae23          	sw	t6,124(s11)
800007a6:	34202ff3          	csrr	t6,mcause
800007aa:	01ffdf93          	srli	t6,t6,0x1f
800007ae:	000f8363          	beqz	t6,800007b4 <mmode_intr_vector_8+0x96>
800007b2:	ad59                	j	80000e48 <mmode_intr_handler>
800007b4:	00000797          	auipc	a5,0x0
800007b8:	ae078793          	addi	a5,a5,-1312 # 80000294 <test_done>
800007bc:	00078067          	jr	a5

800007c0 <mmode_intr_vector_9>:
800007c0:	340d9df3          	csrrw	s11,mscratch,s11
800007c4:	000e0db3          	add	s11,t3,zero
800007c8:	f84d8d93          	addi	s11,s11,-124
800007cc:	001da223          	sw	ra,4(s11)
800007d0:	002da423          	sw	sp,8(s11)
800007d4:	003da623          	sw	gp,12(s11)
800007d8:	004da823          	sw	tp,16(s11)
800007dc:	005daa23          	sw	t0,20(s11)
800007e0:	006dac23          	sw	t1,24(s11)
800007e4:	007dae23          	sw	t2,28(s11)
800007e8:	028da023          	sw	s0,32(s11)
800007ec:	029da223          	sw	s1,36(s11)
800007f0:	02ada423          	sw	a0,40(s11)
800007f4:	02bda623          	sw	a1,44(s11)
800007f8:	02cda823          	sw	a2,48(s11)
800007fc:	02ddaa23          	sw	a3,52(s11)
80000800:	02edac23          	sw	a4,56(s11)
80000804:	02fdae23          	sw	a5,60(s11)
80000808:	050da023          	sw	a6,64(s11)
8000080c:	051da223          	sw	a7,68(s11)
80000810:	052da423          	sw	s2,72(s11)
80000814:	053da623          	sw	s3,76(s11)
80000818:	054da823          	sw	s4,80(s11)
8000081c:	055daa23          	sw	s5,84(s11)
80000820:	056dac23          	sw	s6,88(s11)
80000824:	057dae23          	sw	s7,92(s11)
80000828:	078da023          	sw	s8,96(s11)
8000082c:	079da223          	sw	s9,100(s11)
80000830:	07ada423          	sw	s10,104(s11)
80000834:	07bda623          	sw	s11,108(s11)
80000838:	07cda823          	sw	t3,112(s11)
8000083c:	07ddaa23          	sw	t4,116(s11)
80000840:	07edac23          	sw	t5,120(s11)
80000844:	07fdae23          	sw	t6,124(s11)
80000848:	34202ff3          	csrr	t6,mcause
8000084c:	01ffdf93          	srli	t6,t6,0x1f
80000850:	000f8363          	beqz	t6,80000856 <mmode_intr_vector_9+0x96>
80000854:	abd5                	j	80000e48 <mmode_intr_handler>
80000856:	00000797          	auipc	a5,0x0
8000085a:	a3e78793          	addi	a5,a5,-1474 # 80000294 <test_done>
8000085e:	00078067          	jr	a5

80000862 <mmode_intr_vector_10>:
80000862:	340d9df3          	csrrw	s11,mscratch,s11
80000866:	000e0db3          	add	s11,t3,zero
8000086a:	f84d8d93          	addi	s11,s11,-124
8000086e:	001da223          	sw	ra,4(s11)
80000872:	002da423          	sw	sp,8(s11)
80000876:	003da623          	sw	gp,12(s11)
8000087a:	004da823          	sw	tp,16(s11)
8000087e:	005daa23          	sw	t0,20(s11)
80000882:	006dac23          	sw	t1,24(s11)
80000886:	007dae23          	sw	t2,28(s11)
8000088a:	028da023          	sw	s0,32(s11)
8000088e:	029da223          	sw	s1,36(s11)
80000892:	02ada423          	sw	a0,40(s11)
80000896:	02bda623          	sw	a1,44(s11)
8000089a:	02cda823          	sw	a2,48(s11)
8000089e:	02ddaa23          	sw	a3,52(s11)
800008a2:	02edac23          	sw	a4,56(s11)
800008a6:	02fdae23          	sw	a5,60(s11)
800008aa:	050da023          	sw	a6,64(s11)
800008ae:	051da223          	sw	a7,68(s11)
800008b2:	052da423          	sw	s2,72(s11)
800008b6:	053da623          	sw	s3,76(s11)
800008ba:	054da823          	sw	s4,80(s11)
800008be:	055daa23          	sw	s5,84(s11)
800008c2:	056dac23          	sw	s6,88(s11)
800008c6:	057dae23          	sw	s7,92(s11)
800008ca:	078da023          	sw	s8,96(s11)
800008ce:	079da223          	sw	s9,100(s11)
800008d2:	07ada423          	sw	s10,104(s11)
800008d6:	07bda623          	sw	s11,108(s11)
800008da:	07cda823          	sw	t3,112(s11)
800008de:	07ddaa23          	sw	t4,116(s11)
800008e2:	07edac23          	sw	t5,120(s11)
800008e6:	07fdae23          	sw	t6,124(s11)
800008ea:	34202ff3          	csrr	t6,mcause
800008ee:	01ffdf93          	srli	t6,t6,0x1f
800008f2:	000f8363          	beqz	t6,800008f8 <mmode_intr_vector_10+0x96>
800008f6:	ab89                	j	80000e48 <mmode_intr_handler>
800008f8:	00000797          	auipc	a5,0x0
800008fc:	99c78793          	addi	a5,a5,-1636 # 80000294 <test_done>
80000900:	00078067          	jr	a5

80000904 <mmode_intr_vector_11>:
80000904:	340d9df3          	csrrw	s11,mscratch,s11
80000908:	000e0db3          	add	s11,t3,zero
8000090c:	f84d8d93          	addi	s11,s11,-124
80000910:	001da223          	sw	ra,4(s11)
80000914:	002da423          	sw	sp,8(s11)
80000918:	003da623          	sw	gp,12(s11)
8000091c:	004da823          	sw	tp,16(s11)
80000920:	005daa23          	sw	t0,20(s11)
80000924:	006dac23          	sw	t1,24(s11)
80000928:	007dae23          	sw	t2,28(s11)
8000092c:	028da023          	sw	s0,32(s11)
80000930:	029da223          	sw	s1,36(s11)
80000934:	02ada423          	sw	a0,40(s11)
80000938:	02bda623          	sw	a1,44(s11)
8000093c:	02cda823          	sw	a2,48(s11)
80000940:	02ddaa23          	sw	a3,52(s11)
80000944:	02edac23          	sw	a4,56(s11)
80000948:	02fdae23          	sw	a5,60(s11)
8000094c:	050da023          	sw	a6,64(s11)
80000950:	051da223          	sw	a7,68(s11)
80000954:	052da423          	sw	s2,72(s11)
80000958:	053da623          	sw	s3,76(s11)
8000095c:	054da823          	sw	s4,80(s11)
80000960:	055daa23          	sw	s5,84(s11)
80000964:	056dac23          	sw	s6,88(s11)
80000968:	057dae23          	sw	s7,92(s11)
8000096c:	078da023          	sw	s8,96(s11)
80000970:	079da223          	sw	s9,100(s11)
80000974:	07ada423          	sw	s10,104(s11)
80000978:	07bda623          	sw	s11,108(s11)
8000097c:	07cda823          	sw	t3,112(s11)
80000980:	07ddaa23          	sw	t4,116(s11)
80000984:	07edac23          	sw	t5,120(s11)
80000988:	07fdae23          	sw	t6,124(s11)
8000098c:	34202ff3          	csrr	t6,mcause
80000990:	01ffdf93          	srli	t6,t6,0x1f
80000994:	000f8363          	beqz	t6,8000099a <mmode_intr_vector_11+0x96>
80000998:	a945                	j	80000e48 <mmode_intr_handler>
8000099a:	00000797          	auipc	a5,0x0
8000099e:	8fa78793          	addi	a5,a5,-1798 # 80000294 <test_done>
800009a2:	00078067          	jr	a5

800009a6 <mmode_intr_vector_12>:
800009a6:	340d9df3          	csrrw	s11,mscratch,s11
800009aa:	000e0db3          	add	s11,t3,zero
800009ae:	f84d8d93          	addi	s11,s11,-124
800009b2:	001da223          	sw	ra,4(s11)
800009b6:	002da423          	sw	sp,8(s11)
800009ba:	003da623          	sw	gp,12(s11)
800009be:	004da823          	sw	tp,16(s11)
800009c2:	005daa23          	sw	t0,20(s11)
800009c6:	006dac23          	sw	t1,24(s11)
800009ca:	007dae23          	sw	t2,28(s11)
800009ce:	028da023          	sw	s0,32(s11)
800009d2:	029da223          	sw	s1,36(s11)
800009d6:	02ada423          	sw	a0,40(s11)
800009da:	02bda623          	sw	a1,44(s11)
800009de:	02cda823          	sw	a2,48(s11)
800009e2:	02ddaa23          	sw	a3,52(s11)
800009e6:	02edac23          	sw	a4,56(s11)
800009ea:	02fdae23          	sw	a5,60(s11)
800009ee:	050da023          	sw	a6,64(s11)
800009f2:	051da223          	sw	a7,68(s11)
800009f6:	052da423          	sw	s2,72(s11)
800009fa:	053da623          	sw	s3,76(s11)
800009fe:	054da823          	sw	s4,80(s11)
80000a02:	055daa23          	sw	s5,84(s11)
80000a06:	056dac23          	sw	s6,88(s11)
80000a0a:	057dae23          	sw	s7,92(s11)
80000a0e:	078da023          	sw	s8,96(s11)
80000a12:	079da223          	sw	s9,100(s11)
80000a16:	07ada423          	sw	s10,104(s11)
80000a1a:	07bda623          	sw	s11,108(s11)
80000a1e:	07cda823          	sw	t3,112(s11)
80000a22:	07ddaa23          	sw	t4,116(s11)
80000a26:	07edac23          	sw	t5,120(s11)
80000a2a:	07fdae23          	sw	t6,124(s11)
80000a2e:	34202ff3          	csrr	t6,mcause
80000a32:	01ffdf93          	srli	t6,t6,0x1f
80000a36:	000f8363          	beqz	t6,80000a3c <mmode_intr_vector_12+0x96>
80000a3a:	a139                	j	80000e48 <mmode_intr_handler>
80000a3c:	00000797          	auipc	a5,0x0
80000a40:	85878793          	addi	a5,a5,-1960 # 80000294 <test_done>
80000a44:	00078067          	jr	a5

80000a48 <mmode_intr_vector_13>:
80000a48:	340d9df3          	csrrw	s11,mscratch,s11
80000a4c:	000e0db3          	add	s11,t3,zero
80000a50:	f84d8d93          	addi	s11,s11,-124
80000a54:	001da223          	sw	ra,4(s11)
80000a58:	002da423          	sw	sp,8(s11)
80000a5c:	003da623          	sw	gp,12(s11)
80000a60:	004da823          	sw	tp,16(s11)
80000a64:	005daa23          	sw	t0,20(s11)
80000a68:	006dac23          	sw	t1,24(s11)
80000a6c:	007dae23          	sw	t2,28(s11)
80000a70:	028da023          	sw	s0,32(s11)
80000a74:	029da223          	sw	s1,36(s11)
80000a78:	02ada423          	sw	a0,40(s11)
80000a7c:	02bda623          	sw	a1,44(s11)
80000a80:	02cda823          	sw	a2,48(s11)
80000a84:	02ddaa23          	sw	a3,52(s11)
80000a88:	02edac23          	sw	a4,56(s11)
80000a8c:	02fdae23          	sw	a5,60(s11)
80000a90:	050da023          	sw	a6,64(s11)
80000a94:	051da223          	sw	a7,68(s11)
80000a98:	052da423          	sw	s2,72(s11)
80000a9c:	053da623          	sw	s3,76(s11)
80000aa0:	054da823          	sw	s4,80(s11)
80000aa4:	055daa23          	sw	s5,84(s11)
80000aa8:	056dac23          	sw	s6,88(s11)
80000aac:	057dae23          	sw	s7,92(s11)
80000ab0:	078da023          	sw	s8,96(s11)
80000ab4:	079da223          	sw	s9,100(s11)
80000ab8:	07ada423          	sw	s10,104(s11)
80000abc:	07bda623          	sw	s11,108(s11)
80000ac0:	07cda823          	sw	t3,112(s11)
80000ac4:	07ddaa23          	sw	t4,116(s11)
80000ac8:	07edac23          	sw	t5,120(s11)
80000acc:	07fdae23          	sw	t6,124(s11)
80000ad0:	34202ff3          	csrr	t6,mcause
80000ad4:	01ffdf93          	srli	t6,t6,0x1f
80000ad8:	000f8363          	beqz	t6,80000ade <mmode_intr_vector_13+0x96>
80000adc:	a6b5                	j	80000e48 <mmode_intr_handler>
80000ade:	fffff797          	auipc	a5,0xfffff
80000ae2:	7b678793          	addi	a5,a5,1974 # 80000294 <test_done>
80000ae6:	00078067          	jr	a5

80000aea <mmode_intr_vector_14>:
80000aea:	340d9df3          	csrrw	s11,mscratch,s11
80000aee:	000e0db3          	add	s11,t3,zero
80000af2:	f84d8d93          	addi	s11,s11,-124
80000af6:	001da223          	sw	ra,4(s11)
80000afa:	002da423          	sw	sp,8(s11)
80000afe:	003da623          	sw	gp,12(s11)
80000b02:	004da823          	sw	tp,16(s11)
80000b06:	005daa23          	sw	t0,20(s11)
80000b0a:	006dac23          	sw	t1,24(s11)
80000b0e:	007dae23          	sw	t2,28(s11)
80000b12:	028da023          	sw	s0,32(s11)
80000b16:	029da223          	sw	s1,36(s11)
80000b1a:	02ada423          	sw	a0,40(s11)
80000b1e:	02bda623          	sw	a1,44(s11)
80000b22:	02cda823          	sw	a2,48(s11)
80000b26:	02ddaa23          	sw	a3,52(s11)
80000b2a:	02edac23          	sw	a4,56(s11)
80000b2e:	02fdae23          	sw	a5,60(s11)
80000b32:	050da023          	sw	a6,64(s11)
80000b36:	051da223          	sw	a7,68(s11)
80000b3a:	052da423          	sw	s2,72(s11)
80000b3e:	053da623          	sw	s3,76(s11)
80000b42:	054da823          	sw	s4,80(s11)
80000b46:	055daa23          	sw	s5,84(s11)
80000b4a:	056dac23          	sw	s6,88(s11)
80000b4e:	057dae23          	sw	s7,92(s11)
80000b52:	078da023          	sw	s8,96(s11)
80000b56:	079da223          	sw	s9,100(s11)
80000b5a:	07ada423          	sw	s10,104(s11)
80000b5e:	07bda623          	sw	s11,108(s11)
80000b62:	07cda823          	sw	t3,112(s11)
80000b66:	07ddaa23          	sw	t4,116(s11)
80000b6a:	07edac23          	sw	t5,120(s11)
80000b6e:	07fdae23          	sw	t6,124(s11)
80000b72:	34202ff3          	csrr	t6,mcause
80000b76:	01ffdf93          	srli	t6,t6,0x1f
80000b7a:	000f8363          	beqz	t6,80000b80 <mmode_intr_vector_14+0x96>
80000b7e:	a4e9                	j	80000e48 <mmode_intr_handler>
80000b80:	fffff797          	auipc	a5,0xfffff
80000b84:	71478793          	addi	a5,a5,1812 # 80000294 <test_done>
80000b88:	00078067          	jr	a5

80000b8c <mmode_intr_vector_15>:
80000b8c:	340d9df3          	csrrw	s11,mscratch,s11
80000b90:	000e0db3          	add	s11,t3,zero
80000b94:	f84d8d93          	addi	s11,s11,-124
80000b98:	001da223          	sw	ra,4(s11)
80000b9c:	002da423          	sw	sp,8(s11)
80000ba0:	003da623          	sw	gp,12(s11)
80000ba4:	004da823          	sw	tp,16(s11)
80000ba8:	005daa23          	sw	t0,20(s11)
80000bac:	006dac23          	sw	t1,24(s11)
80000bb0:	007dae23          	sw	t2,28(s11)
80000bb4:	028da023          	sw	s0,32(s11)
80000bb8:	029da223          	sw	s1,36(s11)
80000bbc:	02ada423          	sw	a0,40(s11)
80000bc0:	02bda623          	sw	a1,44(s11)
80000bc4:	02cda823          	sw	a2,48(s11)
80000bc8:	02ddaa23          	sw	a3,52(s11)
80000bcc:	02edac23          	sw	a4,56(s11)
80000bd0:	02fdae23          	sw	a5,60(s11)
80000bd4:	050da023          	sw	a6,64(s11)
80000bd8:	051da223          	sw	a7,68(s11)
80000bdc:	052da423          	sw	s2,72(s11)
80000be0:	053da623          	sw	s3,76(s11)
80000be4:	054da823          	sw	s4,80(s11)
80000be8:	055daa23          	sw	s5,84(s11)
80000bec:	056dac23          	sw	s6,88(s11)
80000bf0:	057dae23          	sw	s7,92(s11)
80000bf4:	078da023          	sw	s8,96(s11)
80000bf8:	079da223          	sw	s9,100(s11)
80000bfc:	07ada423          	sw	s10,104(s11)
80000c00:	07bda623          	sw	s11,108(s11)
80000c04:	07cda823          	sw	t3,112(s11)
80000c08:	07ddaa23          	sw	t4,116(s11)
80000c0c:	07edac23          	sw	t5,120(s11)
80000c10:	07fdae23          	sw	t6,124(s11)
80000c14:	34202ff3          	csrr	t6,mcause
80000c18:	01ffdf93          	srli	t6,t6,0x1f
80000c1c:	000f8363          	beqz	t6,80000c22 <mmode_intr_vector_15+0x96>
80000c20:	a425                	j	80000e48 <mmode_intr_handler>
80000c22:	fffff797          	auipc	a5,0xfffff
80000c26:	67278793          	addi	a5,a5,1650 # 80000294 <test_done>
80000c2a:	00078067          	jr	a5
80000c2e:	0001                	nop

80000c30 <mtvec_handler>:
80000c30:	0400006f          	j	80000c70 <mmode_exception_handler>
80000c34:	e72ff06f          	j	800002a6 <mmode_intr_vector_1>
80000c38:	f12ff06f          	j	8000034a <mmode_intr_vector_2>
80000c3c:	fb2ff06f          	j	800003ee <mmode_intr_vector_3>
80000c40:	853ff06f          	j	80000492 <mmode_intr_vector_4>
80000c44:	8f3ff06f          	j	80000536 <mmode_intr_vector_5>
80000c48:	993ff06f          	j	800005da <mmode_intr_vector_6>
80000c4c:	a31ff06f          	j	8000067c <mmode_intr_vector_7>
80000c50:	acfff06f          	j	8000071e <mmode_intr_vector_8>
80000c54:	b6dff06f          	j	800007c0 <mmode_intr_vector_9>
80000c58:	c0bff06f          	j	80000862 <mmode_intr_vector_10>
80000c5c:	ca9ff06f          	j	80000904 <mmode_intr_vector_11>
80000c60:	d47ff06f          	j	800009a6 <mmode_intr_vector_12>
80000c64:	de5ff06f          	j	80000a48 <mmode_intr_vector_13>
80000c68:	e83ff06f          	j	80000aea <mmode_intr_vector_14>
80000c6c:	f21ff06f          	j	80000b8c <mmode_intr_vector_15>

80000c70 <mmode_exception_handler>:
80000c70:	340d9df3          	csrrw	s11,mscratch,s11
80000c74:	000e0db3          	add	s11,t3,zero
80000c78:	f84d8d93          	addi	s11,s11,-124
80000c7c:	001da223          	sw	ra,4(s11)
80000c80:	002da423          	sw	sp,8(s11)
80000c84:	003da623          	sw	gp,12(s11)
80000c88:	004da823          	sw	tp,16(s11)
80000c8c:	005daa23          	sw	t0,20(s11)
80000c90:	006dac23          	sw	t1,24(s11)
80000c94:	007dae23          	sw	t2,28(s11)
80000c98:	028da023          	sw	s0,32(s11)
80000c9c:	029da223          	sw	s1,36(s11)
80000ca0:	02ada423          	sw	a0,40(s11)
80000ca4:	02bda623          	sw	a1,44(s11)
80000ca8:	02cda823          	sw	a2,48(s11)
80000cac:	02ddaa23          	sw	a3,52(s11)
80000cb0:	02edac23          	sw	a4,56(s11)
80000cb4:	02fdae23          	sw	a5,60(s11)
80000cb8:	050da023          	sw	a6,64(s11)
80000cbc:	051da223          	sw	a7,68(s11)
80000cc0:	052da423          	sw	s2,72(s11)
80000cc4:	053da623          	sw	s3,76(s11)
80000cc8:	054da823          	sw	s4,80(s11)
80000ccc:	055daa23          	sw	s5,84(s11)
80000cd0:	056dac23          	sw	s6,88(s11)
80000cd4:	057dae23          	sw	s7,92(s11)
80000cd8:	078da023          	sw	s8,96(s11)
80000cdc:	079da223          	sw	s9,100(s11)
80000ce0:	07ada423          	sw	s10,104(s11)
80000ce4:	07bda623          	sw	s11,108(s11)
80000ce8:	07cda823          	sw	t3,112(s11)
80000cec:	07ddaa23          	sw	t4,116(s11)
80000cf0:	07edac23          	sw	t5,120(s11)
80000cf4:	07fdae23          	sw	t6,124(s11)
80000cf8:	34102ff3          	csrr	t6,mepc
80000cfc:	34202ff3          	csrr	t6,mcause
80000d00:	4bad                	li	s7,11
80000d02:	017f8d63          	beq	t6,s7,80000d1c <ecall_handler>
80000d06:	4b89                	li	s7,2
80000d08:	0b7f8463          	beq	t6,s7,80000db0 <illegal_instr_handler>
80000d0c:	34302bf3          	csrr	s7,mtval
80000d10:	fffff797          	auipc	a5,0xfffff
80000d14:	58478793          	addi	a5,a5,1412 # 80000294 <test_done>
80000d18:	000780e7          	jalr	a5

80000d1c <ecall_handler>:
80000d1c:	ffffff97          	auipc	t6,0xfffff
80000d20:	2e4f8f93          	addi	t6,t6,740 # 80000000 <_start>
80000d24:	000fa023          	sw	zero,0(t6)
80000d28:	001fa223          	sw	ra,4(t6)
80000d2c:	002fa423          	sw	sp,8(t6)
80000d30:	003fa623          	sw	gp,12(t6)
80000d34:	004fa823          	sw	tp,16(t6)
80000d38:	005faa23          	sw	t0,20(t6)
80000d3c:	006fac23          	sw	t1,24(t6)
80000d40:	007fae23          	sw	t2,28(t6)
80000d44:	028fa023          	sw	s0,32(t6)
80000d48:	029fa223          	sw	s1,36(t6)
80000d4c:	02afa423          	sw	a0,40(t6)
80000d50:	02bfa623          	sw	a1,44(t6)
80000d54:	02cfa823          	sw	a2,48(t6)
80000d58:	02dfaa23          	sw	a3,52(t6)
80000d5c:	02efac23          	sw	a4,56(t6)
80000d60:	02ffae23          	sw	a5,60(t6)
80000d64:	050fa023          	sw	a6,64(t6)
80000d68:	051fa223          	sw	a7,68(t6)
80000d6c:	052fa423          	sw	s2,72(t6)
80000d70:	053fa623          	sw	s3,76(t6)
80000d74:	054fa823          	sw	s4,80(t6)
80000d78:	055faa23          	sw	s5,84(t6)
80000d7c:	056fac23          	sw	s6,88(t6)
80000d80:	057fae23          	sw	s7,92(t6)
80000d84:	078fa023          	sw	s8,96(t6)
80000d88:	079fa223          	sw	s9,100(t6)
80000d8c:	07afa423          	sw	s10,104(t6)
80000d90:	07bfa623          	sw	s11,108(t6)
80000d94:	07cfa823          	sw	t3,112(t6)
80000d98:	07dfaa23          	sw	t4,116(t6)
80000d9c:	07efac23          	sw	t5,120(t6)
80000da0:	07ffae23          	sw	t6,124(t6)
80000da4:	fffff797          	auipc	a5,0xfffff
80000da8:	4f678793          	addi	a5,a5,1270 # 8000029a <write_tohost>
80000dac:	00078067          	jr	a5

80000db0 <illegal_instr_handler>:
80000db0:	34102ff3          	csrr	t6,mepc
80000db4:	0f91                	addi	t6,t6,4
80000db6:	341f9073          	csrw	mepc,t6
80000dba:	004da083          	lw	ra,4(s11)
80000dbe:	008da103          	lw	sp,8(s11)
80000dc2:	00cda183          	lw	gp,12(s11)
80000dc6:	010da203          	lw	tp,16(s11)
80000dca:	014da283          	lw	t0,20(s11)
80000dce:	018da303          	lw	t1,24(s11)
80000dd2:	01cda383          	lw	t2,28(s11)
80000dd6:	020da403          	lw	s0,32(s11)
80000dda:	024da483          	lw	s1,36(s11)
80000dde:	028da503          	lw	a0,40(s11)
80000de2:	02cda583          	lw	a1,44(s11)
80000de6:	030da603          	lw	a2,48(s11)
80000dea:	034da683          	lw	a3,52(s11)
80000dee:	038da703          	lw	a4,56(s11)
80000df2:	03cda783          	lw	a5,60(s11)
80000df6:	040da803          	lw	a6,64(s11)
80000dfa:	044da883          	lw	a7,68(s11)
80000dfe:	048da903          	lw	s2,72(s11)
80000e02:	04cda983          	lw	s3,76(s11)
80000e06:	050daa03          	lw	s4,80(s11)
80000e0a:	054daa83          	lw	s5,84(s11)
80000e0e:	058dab03          	lw	s6,88(s11)
80000e12:	05cdab83          	lw	s7,92(s11)
80000e16:	060dac03          	lw	s8,96(s11)
80000e1a:	064dac83          	lw	s9,100(s11)
80000e1e:	068dad03          	lw	s10,104(s11)
80000e22:	06cdad83          	lw	s11,108(s11)
80000e26:	070dae03          	lw	t3,112(s11)
80000e2a:	074dae83          	lw	t4,116(s11)
80000e2e:	078daf03          	lw	t5,120(s11)
80000e32:	07cdaf83          	lw	t6,124(s11)
80000e36:	07cd8d93          	addi	s11,s11,124
80000e3a:	000d8e33          	add	t3,s11,zero
80000e3e:	340d9df3          	csrrw	s11,mscratch,s11
80000e42:	30200073          	mret

80000e46 <pt_fault_handler>:
80000e46:	0001                	nop

80000e48 <mmode_intr_handler>:
80000e48:	30002ff3          	csrr	t6,mstatus
80000e4c:	30402ff3          	csrr	t6,mie
80000e50:	34402ff3          	csrr	t6,mip
80000e54:	344fbff3          	csrrc	t6,mip,t6
80000e58:	004da083          	lw	ra,4(s11)
80000e5c:	008da103          	lw	sp,8(s11)
80000e60:	00cda183          	lw	gp,12(s11)
80000e64:	010da203          	lw	tp,16(s11)
80000e68:	014da283          	lw	t0,20(s11)
80000e6c:	018da303          	lw	t1,24(s11)
80000e70:	01cda383          	lw	t2,28(s11)
80000e74:	020da403          	lw	s0,32(s11)
80000e78:	024da483          	lw	s1,36(s11)
80000e7c:	028da503          	lw	a0,40(s11)
80000e80:	02cda583          	lw	a1,44(s11)
80000e84:	030da603          	lw	a2,48(s11)
80000e88:	034da683          	lw	a3,52(s11)
80000e8c:	038da703          	lw	a4,56(s11)
80000e90:	03cda783          	lw	a5,60(s11)
80000e94:	040da803          	lw	a6,64(s11)
80000e98:	044da883          	lw	a7,68(s11)
80000e9c:	048da903          	lw	s2,72(s11)
80000ea0:	04cda983          	lw	s3,76(s11)
80000ea4:	050daa03          	lw	s4,80(s11)
80000ea8:	054daa83          	lw	s5,84(s11)
80000eac:	058dab03          	lw	s6,88(s11)
80000eb0:	05cdab83          	lw	s7,92(s11)
80000eb4:	060dac03          	lw	s8,96(s11)
80000eb8:	064dac83          	lw	s9,100(s11)
80000ebc:	068dad03          	lw	s10,104(s11)
80000ec0:	06cdad83          	lw	s11,108(s11)
80000ec4:	070dae03          	lw	t3,112(s11)
80000ec8:	074dae83          	lw	t4,116(s11)
80000ecc:	078daf03          	lw	t5,120(s11)
80000ed0:	07cdaf83          	lw	t6,124(s11)
80000ed4:	07cd8d93          	addi	s11,s11,124
80000ed8:	000d8e33          	add	t3,s11,zero
80000edc:	340d9df3          	csrrw	s11,mscratch,s11
80000ee0:	30200073          	mret

80000ee4 <kernel_instr_end>:
80000ee4:	0001                	nop
80000ee6:	0001                	nop

80000ee8 <kernel_data_start>:
	...
