
riscv_arithmetic_basic_test_0.exe:     file format elf32-littleriscv


Disassembly of section .text:

80000000 <_start>:
80000000:	f14022f3          	csrr	t0,mhartid
80000004:	4301                	li	t1,0
80000006:	00628263          	beq	t0,t1,8000000a <_start+0xa>
8000000a:	00000f97          	auipc	t6,0x0
8000000e:	00cf8f93          	addi	t6,t6,12 # 80000016 <h0_start>
80000012:	000f8067          	jr	t6

80000016 <h0_start>:
80000016:	40001f37          	lui	t5,0x40001
8000001a:	104f0f13          	addi	t5,t5,260 # 40001104 <_start-0x3fffeefc>
8000001e:	301f1073          	csrw	misa,t5

80000022 <kernel_sp>:
80000022:	7004a797          	auipc	a5,0x7004a
80000026:	c6278793          	addi	a5,a5,-926 # f0049c84 <kernel_stack_end>

8000002a <trap_vec_init>:
8000002a:	00002f17          	auipc	t5,0x2
8000002e:	a06f0f13          	addi	t5,t5,-1530 # 80001a30 <mtvec_handler>
80000032:	001f6f13          	ori	t5,t5,1
80000036:	305f1073          	csrw	mtvec,t5

8000003a <mepc_setup>:
8000003a:	00000f17          	auipc	t5,0x0
8000003e:	020f0f13          	addi	t5,t5,32 # 8000005a <init>
80000042:	341f1073          	csrw	mepc,t5

80000046 <init_machine_mode>:
80000046:	6f09                	lui	t5,0x2
80000048:	c00f0f13          	addi	t5,t5,-1024 # 1c00 <_start-0x7fffe400>
8000004c:	300f1073          	csrw	mstatus,t5
80000050:	4f01                	li	t5,0
80000052:	304f1073          	csrw	mie,t5
80000056:	30200073          	mret

8000005a <init>:
8000005a:	f5f2b037          	lui	zero,0xf5f2b
8000005e:	c1800013          	li	zero,-1000
80000062:	375f20b7          	lui	ra,0x375f2
80000066:	68808093          	addi	ra,ra,1672 # 375f2688 <_start-0x48a0d978>
8000006a:	80000137          	lui	sp,0x80000
8000006e:	800001b7          	lui	gp,0x80000
80000072:	a736d237          	lui	tp,0xa736d
80000076:	2d020213          	addi	tp,tp,720 # a736d2d0 <STACK+0xb7322640>
8000007a:	800002b7          	lui	t0,0x80000
8000007e:	f9522337          	lui	t1,0xf9522
80000082:	3b630313          	addi	t1,t1,950 # f95223b6 <STACK+0x94d7726>
80000086:	4391                	li	t2,4
80000088:	ff2d0437          	lui	s0,0xff2d0
8000008c:	df940413          	addi	s0,s0,-519 # ff2cfdf9 <STACK+0xf285169>
80000090:	4fe324b7          	lui	s1,0x4fe32
80000094:	84148493          	addi	s1,s1,-1983 # 4fe31841 <_start-0x301ce7bf>
80000098:	c8d20537          	lui	a0,0xc8d20
8000009c:	8aa50513          	addi	a0,a0,-1878 # c8d1f8aa <STACK+0xd8cd4c1a>
800000a0:	800005b7          	lui	a1,0x80000
800000a4:	4609                	li	a2,2
800000a6:	f07366b7          	lui	a3,0xf0736
800000aa:	8bf68693          	addi	a3,a3,-1857 # f07358bf <STACK+0x6eac2f>
800000ae:	a0318737          	lui	a4,0xa0318
800000b2:	99d70713          	addi	a4,a4,-1635 # a031799d <STACK+0xb02ccd0d>
800000b6:	6f6e7837          	lui	a6,0x6f6e7
800000ba:	d9e80813          	addi	a6,a6,-610 # 6f6e6d9e <_start-0x10919262>
800000be:	800008b7          	lui	a7,0x80000
800000c2:	f91f3937          	lui	s2,0xf91f3
800000c6:	12690913          	addi	s2,s2,294 # f91f3126 <STACK+0x91a8496>
800000ca:	4999                	li	s3,6
800000cc:	4a05                	li	s4,1
800000ce:	4ab9                	li	s5,14
800000d0:	f52a3b37          	lui	s6,0xf52a3
800000d4:	95eb0b13          	addi	s6,s6,-1698 # f52a295e <STACK+0x5257cce>
800000d8:	d3d4ebb7          	lui	s7,0xd3d4e
800000dc:	b8ab8b93          	addi	s7,s7,-1142 # d3d4db8a <STACK+0xe3d02efa>
800000e0:	4c01                	li	s8,0
800000e2:	4c81                	li	s9,0
800000e4:	4d11                	li	s10,4
800000e6:	fb5b8e37          	lui	t3,0xfb5b8
800000ea:	885e0e13          	addi	t3,t3,-1915 # fb5b7885 <STACK+0xb56cbf5>
800000ee:	4e81                	li	t4,0
800000f0:	f6ed8f37          	lui	t5,0xf6ed8
800000f4:	0acf0f13          	addi	t5,t5,172 # f6ed80ac <STACK+0x6e8d41c>
800000f8:	4f81                	li	t6,0
800000fa:	70045d97          	auipc	s11,0x70045
800000fe:	d6ad8d93          	addi	s11,s11,-662 # f0044e64 <user_stack_end>

80000102 <main>:
80000102:	4f05                	li	t5,1
80000104:	4481                	li	s1,0
80000106:	4e85                	li	t4,1
80000108:	4581                	li	a1,0
8000010a:	4e05                	li	t3,1
8000010c:	65058d37          	lui	s10,0x65058
80000110:	34ad0d13          	addi	s10,s10,842 # 6505834a <_start-0x1afa7cb6>
80000114:	4085                	li	ra,1
80000116:	4c01                	li	s8,0
80000118:	4c85                	li	s9,1
8000011a:	4505                	li	a0,1
8000011c:	8e95                	sub	a3,a3,a3
8000011e:	1afd                	addi	s5,s5,-1
80000120:	02ee3b33          	mulhu	s6,t3,a4
80000124:	03b258b3          	divu	a7,tp,s11
80000128:	89a6                	mv	s3,s1
8000012a:	0001                	nop
8000012c:	030e1cb3          	mulh	s9,t3,a6
80000130:	1a619037          	lui	zero,0x1a619
80000134:	0001                	nop
80000136:	0294                	addi	a3,sp,320
80000138:	9116                	add	sp,sp,t0
8000013a:	02e24033          	div	zero,tp,a4
8000013e:	40b1                	li	ra,12
80000140:	fb9de037          	lui	zero,0xfb9de
80000144:	668d                	lui	a3,0x3
80000146:	0494                	addi	a3,sp,576
80000148:	90375597          	auipc	a1,0x90375
8000014c:	edec0e13          	addi	t3,s8,-290
80000150:	02368733          	mul	a4,a3,gp
80000154:	60bfd037          	lui	zero,0x60bfd
80000158:	00958133          	add	sp,a1,s1
8000015c:	8c95                	sub	s1,s1,a3
8000015e:	0001                	nop
80000160:	0001                	nop
80000162:	40c9                	li	ra,18
80000164:	001ebe33          	sltu	t3,t4,ra
80000168:	aed74313          	xori	t1,a4,-1299
8000016c:	019f2133          	slt	sp,t5,s9
80000170:	4b18c293          	xori	t0,a7,1201
80000174:	0394                	addi	a3,sp,448
80000176:	022215b3          	mulh	a1,tp,sp
8000017a:	8c35                	xor	s0,s0,a3
8000017c:	2d87e0b7          	lui	ra,0x2d87e
80000180:	1188                	addi	a0,sp,224
80000182:	029a6e33          	rem	t3,s4,s1
80000186:	0001                	nop
80000188:	86d1                	srai	a3,a3,0x14
8000018a:	8bd6e813          	ori	a6,a3,-1859
8000018e:	02355233          	divu	tp,a0,gp
80000192:	4bc1                	li	s7,16
80000194:	00c38a33          	add	s4,t2,a2
80000198:	8e95                	sub	a3,a3,a3
8000019a:	022c3ab3          	mulhu	s5,s8,sp
8000019e:	0194                	addi	a3,sp,192
800001a0:	013c0f33          	add	t5,s8,s3
800001a4:	026a8333          	mul	t1,s5,t1
800001a8:	0001                	nop
800001aa:	00915f13          	srli	t5,sp,0x9
800001ae:	088da993          	slti	s3,s11,136
800001b2:	8571                	srai	a0,a0,0x1c
800001b4:	00f500b3          	add	ra,a0,a5
800001b8:	001164b3          	or	s1,sp,ra
800001bc:	00aea033          	slt	zero,t4,a0
800001c0:	349a2093          	slti	ra,s4,841
800001c4:	62db4913          	xori	s2,s6,1581
800001c8:	0ae5                	addi	s5,s5,25
800001ca:	748c5f17          	auipc	t5,0x748c5
800001ce:	01561193          	slli	gp,a2,0x15
800001d2:	6109                	addi	sp,sp,128
800001d4:	00a65c13          	srli	s8,a2,0xa
800001d8:	820d                	srli	a2,a2,0x3
800001da:	0680                	addi	s0,sp,832
800001dc:	0025d8b3          	srl	a7,a1,sp
800001e0:	717d                	addi	sp,sp,-16
800001e2:	0312dbb3          	divu	s7,t0,a7
800001e6:	8041                	srli	s0,s0,0x10
800001e8:	0114                	addi	a3,sp,128
800001ea:	032b34b3          	mulhu	s1,s6,s2
800001ee:	010cde93          	srli	t4,s9,0x10
800001f2:	1e14                	addi	a3,sp,816
800001f4:	177d                	addi	a4,a4,-1
800001f6:	8ed5                	or	a3,a3,a3
800001f8:	9226                	add	tp,tp,s1
800001fa:	401d88b3          	sub	a7,s11,ra
800001fe:	cb5d0bb7          	lui	s7,0xcb5d0
80000202:	00a19c33          	sll	s8,gp,a0
80000206:	86cd                	srai	a3,a3,0x13
80000208:	9aae                	add	s5,s5,a1
8000020a:	41155d33          	sra	s10,a0,a7
8000020e:	038ed0b3          	divu	ra,t4,s8
80000212:	01161013          	slli	zero,a2,0x11
80000216:	020455b3          	divu	a1,s0,zero
8000021a:	610d                	addi	sp,sp,160
8000021c:	fa977313          	andi	t1,a4,-87
80000220:	1488                	addi	a0,sp,608
80000222:	886e                	mv	a6,s11
80000224:	01558f33          	add	t5,a1,s5
80000228:	00f1b833          	sltu	a6,gp,a5
8000022c:	8571                	srai	a0,a0,0x1c
8000022e:	8c35                	xor	s0,s0,a3
80000230:	914a                	add	sp,sp,s2
80000232:	416adcb3          	sra	s9,s5,s6
80000236:	035589b3          	mul	s3,a1,s5
8000023a:	005d3bb3          	sltu	s7,s10,t0
8000023e:	47dbec13          	ori	s8,s7,1149
80000242:	03ed0e33          	mul	t3,s10,t5
80000246:	848b4113          	xori	sp,s6,-1976
8000024a:	8d194b93          	xori	s7,s2,-1839
8000024e:	40f48433          	sub	s0,s1,a5
80000252:	34e0f113          	andi	sp,ra,846
80000256:	41875093          	srai	ra,a4,0x18
8000025a:	8eb5                	xor	a3,a3,a3
8000025c:	01a5c633          	xor	a2,a1,s10
80000260:	717d                	addi	sp,sp,-16
80000262:	4143d533          	sra	a0,t2,s4
80000266:	82b5                	srli	a3,a3,0xd
80000268:	4161d493          	srai	s1,gp,0x16
8000026c:	00c76033          	or	zero,a4,a2
80000270:	22811b17          	auipc	s6,0x22811
80000274:	0001                	nop
80000276:	86ed                	srai	a3,a3,0x1b
80000278:	41a6db93          	srai	s7,a3,0x1a
8000027c:	0001                	nop
8000027e:	9cea                	add	s9,s9,s10
80000280:	a4a3e8b7          	lui	a7,0xa4a3e
80000284:	9afd                	andi	a3,a3,-1
80000286:	cd599b17          	auipc	s6,0xcd599
8000028a:	01a1d013          	srli	zero,gp,0x1a
8000028e:	0514                	addi	a3,sp,640
80000290:	41575913          	srai	s2,a4,0x15
80000294:	01a5c233          	xor	tp,a1,s10
80000298:	003d1393          	slli	t2,s10,0x3
8000029c:	02e9b933          	mulhu	s2,s3,a4
800002a0:	b5e39637          	lui	a2,0xb5e39
800002a4:	01f41713          	slli	a4,s0,0x1f
800002a8:	9aa6                	add	s5,s5,s1
800002aa:	6135                	addi	sp,sp,352
800002ac:	00a47333          	and	t1,s0,a0
800002b0:	018538b3          	sltu	a7,a0,s8
800002b4:	00e3d893          	srli	a7,t2,0xe
800002b8:	0001                	nop
800002ba:	8e89                	sub	a3,a3,a0
800002bc:	00201d33          	sll	s10,zero,sp
800002c0:	86c1                	srai	a3,a3,0x10
800002c2:	405fd013          	srai	zero,t6,0x5
800002c6:	01876f33          	or	t5,a4,s8
800002ca:	00541493          	slli	s1,s0,0x5
800002ce:	849d                	srai	s1,s1,0x7
800002d0:	416d5013          	srai	zero,s10,0x16
800002d4:	01ea29b3          	slt	s3,s4,t5
800002d8:	86ed                	srai	a3,a3,0x1b
800002da:	40125d13          	srai	s10,tp,0x1
800002de:	8e95                	sub	a3,a3,a3
800002e0:	717d                	addi	sp,sp,-16
800002e2:	011d74b3          	and	s1,s10,a7
800002e6:	40e85713          	srai	a4,a6,0xe
800002ea:	0290e1b3          	rem	gp,ra,s1
800002ee:	03e728b3          	mulhsu	a7,a4,t5
800002f2:	008f3833          	sltu	a6,t5,s0
800002f6:	017adc93          	srli	s9,s5,0x17
800002fa:	8edd                	or	a3,a3,a5
800002fc:	0355a733          	mulhsu	a4,a1,s5
80000300:	0001                	nop
80000302:	1d14                	addi	a3,sp,688
80000304:	0472                	slli	s0,s0,0x1c
80000306:	10fd                	addi	ra,ra,-1 # 2d87dfff <_start-0x52782001>
80000308:	da0c3693          	sltiu	a3,s8,-608
8000030c:	017d6b33          	or	s6,s10,s7
80000310:	82ed                	srli	a3,a3,0x1b
80000312:	874e                	mv	a4,s3
80000314:	00499e33          	sll	t3,s3,tp
80000318:	0001                	nop
8000031a:	30980f13          	addi	t5,a6,777
8000031e:	40095633          	sra	a2,s2,zero
80000322:	02ae1eb3          	mulh	t4,t3,a0
80000326:	9ad2                	add	s5,s5,s4
80000328:	8ef5                	and	a3,a3,a3
8000032a:	01c15c93          	srli	s9,sp,0x1c
8000032e:	41a5df33          	sra	t5,a1,s10
80000332:	a31fa913          	slti	s2,t6,-1487
80000336:	8ebd                	xor	a3,a3,a5
80000338:	00f93433          	sltu	s0,s2,a5
8000033c:	717d                	addi	sp,sp,-16
8000033e:	850a                	mv	a0,sp
80000340:	0071fab3          	and	s5,gp,t2
80000344:	0001                	nop
80000346:	02d6                	slli	t0,t0,0x15
80000348:	4c89                	li	s9,2
8000034a:	00108833          	add	a6,ra,ra
8000034e:	019c8e33          	add	t3,s9,s9
80000352:	01cd25b3          	slt	a1,s10,t3
80000356:	0116f5b3          	and	a1,a3,a7
8000035a:	e2aaaa13          	slti	s4,s5,-470
8000035e:	8be62013          	slti	zero,a2,-1858
80000362:	039c0cb3          	mul	s9,s8,s9
80000366:	0c66                	slli	s8,s8,0x19
80000368:	ffc8d8b7          	lui	a7,0xffc8d
8000036c:	fbe1cf13          	xori	t5,gp,-66
80000370:	1c94fd13          	andi	s10,s1,457
80000374:	00195b33          	srl	s6,s2,ra
80000378:	9afd                	andi	a3,a3,-1
8000037a:	2e9d2913          	slti	s2,s10,745
8000037e:	029eb1b3          	mulhu	gp,t4,s1
80000382:	3623c213          	xori	tp,t2,866
80000386:	02e95eb3          	divu	t4,s2,a4
8000038a:	01680bb3          	add	s7,a6,s6
8000038e:	02b8bc33          	mulhu	s8,a7,a1
80000392:	414d5333          	sra	t1,s10,s4
80000396:	d2240013          	addi	zero,s0,-734
8000039a:	0093c633          	xor	a2,t2,s1
8000039e:	400a5cb3          	sra	s9,s4,zero
800003a2:	00751ab3          	sll	s5,a0,t2
800003a6:	0001                	nop
800003a8:	9afd                	andi	a3,a3,-1
800003aa:	015ca0b3          	slt	ra,s9,s5
800003ae:	9a7ee913          	ori	s2,t4,-1625
800003b2:	41035113          	srai	sp,t1,0x10
800003b6:	01cbd013          	srli	zero,s7,0x1c
800003ba:	020c10b3          	mulh	ra,s8,zero
800003be:	8595                	srai	a1,a1,0x5
800003c0:	6489                	lui	s1,0x2
800003c2:	0094                	addi	a3,sp,64
800003c4:	86a1                	srai	a3,a3,0x8
800003c6:	a83cb037          	lui	zero,0xa83cb
800003ca:	8ef5                	and	a3,a3,a3
800003cc:	8ed5                	or	a3,a3,a3
800003ce:	011511b3          	sll	gp,a0,a7
800003d2:	00f69913          	slli	s2,a3,0xf
800003d6:	013a4033          	xor	zero,s4,s3
800003da:	537d                	li	t1,-1
800003dc:	86d9                	srai	a3,a3,0x16
800003de:	00e65013          	srli	zero,a2,0xe
800003e2:	8eb5                	xor	a3,a3,a3
800003e4:	094a                	slli	s2,s2,0x12
800003e6:	868d                	srai	a3,a3,0x3
800003e8:	01505413          	srli	s0,zero,0x15
800003ec:	01e76733          	or	a4,a4,t5
800003f0:	00add313          	srli	t1,s11,0xa
800003f4:	0001                	nop
800003f6:	0001                	nop
800003f8:	c6f46817          	auipc	a6,0xc6f46
800003fc:	8eb5                	xor	a3,a3,a3
800003fe:	4b49                	li	s6,18
80000400:	017d4933          	xor	s2,s10,s7
80000404:	00aa5993          	srli	s3,s4,0xa
80000408:	01363bb3          	sltu	s7,a2,s3
8000040c:	fa134513          	xori	a0,t1,-95
80000410:	0059d393          	srli	t2,s3,0x5
80000414:	9afd                	andi	a3,a3,-1
80000416:	0064d5b3          	srl	a1,s1,t1
8000041a:	8e95                	sub	a3,a3,a3
8000041c:	8e95                	sub	a3,a3,a3
8000041e:	0714                	addi	a3,sp,896
80000420:	00303633          	snez	a2,gp
80000424:	696d                	lui	s2,0x1b
80000426:	0114                	addi	a3,sp,128
80000428:	d6f08293          	addi	t0,ra,-657
8000042c:	0bc36113          	ori	sp,t1,188
80000430:	051e                	slli	a0,a0,0x7
80000432:	608d6bb7          	lui	s7,0x608d6
80000436:	9afd                	andi	a3,a3,-1
80000438:	aee3b393          	sltiu	t2,t2,-1298
8000043c:	02124433          	div	s0,tp,ra
80000440:	157d                	addi	a0,a0,-1
80000442:	5bfd                	li	s7,-1
80000444:	004dacb3          	slt	s9,s11,tp
80000448:	01dc5c33          	srl	s8,s8,t4
8000044c:	03050f33          	mul	t5,a0,a6
80000450:	01b71393          	slli	t2,a4,0x1b
80000454:	0051db93          	srli	s7,gp,0x5
80000458:	5a7d                	li	s4,-1
8000045a:	5e58a093          	slti	ra,a7,1509
8000045e:	005443b3          	xor	t2,s0,t0
80000462:	93d2                	add	t2,t2,s4
80000464:	8c95                	sub	s1,s1,a3
80000466:	5421a013          	slti	zero,gp,1346
8000046a:	68e5                	lui	a7,0x19
8000046c:	82b9                	srli	a3,a3,0xe
8000046e:	010d6733          	or	a4,s10,a6
80000472:	8ee1                	and	a3,a3,s0
80000474:	6119                	addi	sp,sp,384
80000476:	9226                	add	tp,tp,s1
80000478:	22220a13          	addi	s4,tp,546 # 222 <_start-0x7ffffdde>
8000047c:	8685                	srai	a3,a3,0x1
8000047e:	04ae                	slli	s1,s1,0xb
80000480:	901ce193          	ori	gp,s9,-1791
80000484:	5db83893          	sltiu	a7,a6,1499
80000488:	014fccb3          	xor	s9,t6,s4
8000048c:	0001                	nop
8000048e:	8e81                	sub	a3,a3,s0
80000490:	00a2a933          	slt	s2,t0,a0
80000494:	810d                	srli	a0,a0,0x3
80000496:	83c6                	mv	t2,a7
80000498:	00364233          	xor	tp,a2,gp
8000049c:	0001                	nop
8000049e:	0085                	addi	ra,ra,1
800004a0:	1d9689b7          	lui	s3,0x1d968
800004a4:	84b5                	srai	s1,s1,0xd
800004a6:	024a9ab3          	mulh	s5,s5,tp
800004aa:	01159d13          	slli	s10,a1,0x11
800004ae:	00d1                	addi	ra,ra,20
800004b0:	4fae0413          	addi	s0,t3,1274
800004b4:	6c11                	lui	s8,0x4
800004b6:	8ef5                	and	a3,a3,a3
800004b8:	8f35                	xor	a4,a4,a3
800004ba:	01e4db33          	srl	s6,s1,t5
800004be:	03d01933          	mulh	s2,zero,t4
800004c2:	8e0a                	mv	t3,sp
800004c4:	0248a033          	mulhsu	zero,a7,tp
800004c8:	cc584f13          	xori	t5,a6,-827
800004cc:	54f7ba13          	sltiu	s4,a5,1359
800004d0:	8be2                	mv	s7,s8
800004d2:	8e15                	sub	a2,a2,a3
800004d4:	7f8fa893          	slti	a7,t6,2040
800004d8:	00fe9013          	slli	zero,t4,0xf
800004dc:	00c41493          	slli	s1,s0,0xc
800004e0:	01d074b3          	and	s1,zero,t4
800004e4:	02de56b3          	divu	a3,t3,a3
800004e8:	8d06                	mv	s10,ra
800004ea:	ca182213          	slti	tp,a6,-863
800004ee:	1f7d                	addi	t5,t5,-1 # f48c51c9 <STACK+0x487a539>
800004f0:	8ed5                	or	a3,a3,a3
800004f2:	622a2e17          	auipc	t3,0x622a2
800004f6:	039fdeb3          	divu	t4,t6,s9
800004fa:	0146f5b3          	and	a1,a3,s4
800004fe:	6859                	lui	a6,0x16
80000500:	03ae                	slli	t2,t2,0xb
80000502:	02443e33          	mulhu	t3,s0,tp
80000506:	d1aa8013          	addi	zero,s5,-742
8000050a:	86752393          	slti	t2,a0,-1945
8000050e:	02cfb1b3          	mulhu	gp,t6,a2
80000512:	028e2bb3          	mulhsu	s7,t3,s0
80000516:	4775                	li	a4,29
80000518:	717d                	addi	sp,sp,-16
8000051a:	02c556b3          	divu	a3,a0,a2
8000051e:	00dedc33          	srl	s8,t4,a3
80000522:	035c1033          	mulh	zero,s8,s5
80000526:	03779833          	mulh	a6,a5,s7
8000052a:	8f75                	and	a4,a4,a3
8000052c:	9b7d                	andi	a4,a4,-1
8000052e:	03569033          	mulh	zero,a3,s5
80000532:	8ed5                	or	a3,a3,a3
80000534:	029dc833          	div	a6,s11,s1
80000538:	0001                	nop
8000053a:	00a9                	addi	ra,ra,10
8000053c:	019f1c13          	slli	s8,t5,0x19
80000540:	6155                	addi	sp,sp,304
80000542:	92ce                	add	t0,t0,s3
80000544:	42353093          	sltiu	ra,a0,1059
80000548:	09da                	slli	s3,s3,0x16
8000054a:	01001033          	sll	zero,zero,a6
8000054e:	00958bb3          	add	s7,a1,s1
80000552:	01655013          	srli	zero,a0,0x16
80000556:	01ba6d33          	or	s10,s4,s11
8000055a:	40ead833          	sra	a6,s5,a4
8000055e:	d9eaea93          	ori	s5,s5,-610
80000562:	0001                	nop
80000564:	8eb5                	xor	a3,a3,a3
80000566:	14fd                	addi	s1,s1,-1 # 1fff <_start-0x7fffe001>
80000568:	8291                	srli	a3,a3,0x4
8000056a:	9f490a93          	addi	s5,s2,-1548 # 1a9f4 <_start-0x7ffe560c>
8000056e:	8eb5                	xor	a3,a3,a3
80000570:	410cd693          	srai	a3,s9,0x10
80000574:	2165ee37          	lui	t3,0x2165e
80000578:	9ddb0c93          	addi	s9,s6,-1571 # 4d598c63 <_start-0x32a6739d>
8000057c:	01da3933          	sltu	s2,s4,t4
80000580:	b502b293          	sltiu	t0,t0,-1200
80000584:	00631213          	slli	tp,t1,0x6
80000588:	ff40e193          	ori	gp,ra,-12
8000058c:	0494                	addi	a3,sp,576
8000058e:	86e9                	srai	a3,a3,0x1a
80000590:	006bdbb3          	srl	s7,s7,t1
80000594:	40d1                	li	ra,20
80000596:	8eb5                	xor	a3,a3,a3
80000598:	0694                	addi	a3,sp,832
8000059a:	02c8c933          	div	s2,a7,a2
8000059e:	028f1ab3          	mulh	s5,t5,s0
800005a2:	415bf993          	andi	s3,s7,1045
800005a6:	8edd                	or	a3,a3,a5
800005a8:	02c762b3          	rem	t0,a4,a2
800005ac:	01de8d33          	add	s10,t4,t4
800005b0:	0bae                	slli	s7,s7,0xb
800005b2:	412b8833          	sub	a6,s7,s2
800005b6:	400459b3          	sra	s3,s0,zero
800005ba:	01d8a733          	slt	a4,a7,t4
800005be:	01dd4b33          	xor	s6,s10,t4
800005c2:	004985b3          	add	a1,s3,tp
800005c6:	0395e6b3          	rem	a3,a1,s9
800005ca:	0001                	nop
800005cc:	8f55                	or	a4,a4,a3
800005ce:	007a22b3          	slt	t0,s4,t2
800005d2:	000dd733          	srl	a4,s11,zero
800005d6:	00998bb3          	add	s7,s3,s1
800005da:	7aa12593          	slti	a1,sp,1962
800005de:	e66b0037          	lui	zero,0xe66b0
800005e2:	60e5                	lui	ra,0x19
800005e4:	90a6                	add	ra,ra,s1
800005e6:	4188d013          	srai	zero,a7,0x18
800005ea:	0348b6b3          	mulhu	a3,a7,s4
800005ee:	419459b3          	sra	s3,s0,s9
800005f2:	004b1c33          	sll	s8,s6,tp
800005f6:	00eab733          	sltu	a4,s5,a4
800005fa:	8f55                	or	a4,a4,a3
800005fc:	8ea5                	xor	a3,a3,s1
800005fe:	8ed5                	or	a3,a3,a3
80000600:	00811a13          	slli	s4,sp,0x8
80000604:	0932                	slli	s2,s2,0xc
80000606:	0001                	nop
80000608:	197d                	addi	s2,s2,-1
8000060a:	0141a133          	slt	sp,gp,s4
8000060e:	8af5                	andi	a3,a3,29
80000610:	facf2713          	slti	a4,t5,-84
80000614:	00b49133          	sll	sp,s1,a1
80000618:	86fd                	srai	a3,a3,0x1f
8000061a:	8e95                	sub	a3,a3,a3
8000061c:	60cd                	lui	ra,0x13
8000061e:	929a                	add	t0,t0,t1
80000620:	999e                	add	s3,s3,t2
80000622:	3c07ed13          	ori	s10,a5,960
80000626:	8ed5                	or	a3,a3,a3
80000628:	9286                	add	t0,t0,ra
8000062a:	8eb5                	xor	a3,a3,a3
8000062c:	01921433          	sll	s0,tp,s9
80000630:	01df9013          	slli	zero,t6,0x1d
80000634:	01e27333          	and	t1,tp,t5
80000638:	0001                	nop
8000063a:	c90c4937          	lui	s2,0xc90c4
8000063e:	010ad193          	srli	gp,s5,0x10
80000642:	8e95                	sub	a3,a3,a3
80000644:	403adb13          	srai	s6,s5,0x3
80000648:	0197fbb3          	and	s7,a5,s9
8000064c:	25503493          	sltiu	s1,zero,597
80000650:	01521013          	slli	zero,tp,0x15
80000654:	018db9b3          	sltu	s3,s11,s8
80000658:	03988333          	mul	t1,a7,s9
8000065c:	006a1033          	sll	zero,s4,t1
80000660:	001830b3          	sltu	ra,a6,ra
80000664:	00bf5933          	srl	s2,t5,a1
80000668:	01b67c33          	and	s8,a2,s11
8000066c:	0175fb33          	and	s6,a1,s7
80000670:	83ae                	mv	t2,a1
80000672:	02af1cb3          	mulh	s9,t5,a0
80000676:	0962                	slli	s2,s2,0x18
80000678:	038802b3          	mul	t0,a6,s8
8000067c:	80e1                	srli	s1,s1,0x18
8000067e:	90e6                	add	ra,ra,s9
80000680:	40800f33          	neg	t5,s0
80000684:	00ed10b3          	sll	ra,s10,a4
80000688:	009e2133          	slt	sp,t3,s1
8000068c:	0506                	slli	a0,a0,0x1
8000068e:	41da0733          	sub	a4,s4,t4
80000692:	01035293          	srli	t0,t1,0x10
80000696:	0276                	slli	tp,tp,0x1d
80000698:	00ea                	slli	ra,ra,0x1a
8000069a:	03e99033          	mulh	zero,s3,t5
8000069e:	40a6d713          	srai	a4,a3,0xa
800006a2:	1494                	addi	a3,sp,608
800006a4:	6131                	addi	sp,sp,320
800006a6:	0001                	nop
800006a8:	faef4693          	xori	a3,t5,-82
800006ac:	01335913          	srli	s2,t1,0x13
800006b0:	03cbd033          	divu	zero,s7,t3
800006b4:	02953133          	mulhu	sp,a0,s1
800006b8:	0a42                	slli	s4,s4,0x10
800006ba:	01ea36b3          	sltu	a3,s4,t5
800006be:	00ea7433          	and	s0,s4,a4
800006c2:	019a1233          	sll	tp,s4,s9
800006c6:	8656                	mv	a2,s5
800006c8:	6131                	addi	sp,sp,320
800006ca:	48e42497          	auipc	s1,0x48e42
800006ce:	8efa                	mv	t4,t5
800006d0:	0001                	nop
800006d2:	717d                	addi	sp,sp,-16
800006d4:	016d                	addi	sp,sp,27 # 8000001b <STACK+0x8ffb538b>
800006d6:	00cd1ab3          	sll	s5,s10,a2
800006da:	13493813          	sltiu	a6,s2,308
800006de:	00f96833          	or	a6,s2,a5
800006e2:	03e1c0b3          	div	ra,gp,t5
800006e6:	0159e333          	or	t1,s3,s5
800006ea:	fdc74113          	xori	sp,a4,-36
800006ee:	41315bb3          	sra	s7,sp,s3
800006f2:	0001                	nop
800006f4:	8ed5                	or	a3,a3,a3
800006f6:	8622                	mv	a2,s0
800006f8:	ea15f993          	andi	s3,a1,-351
800006fc:	200a0013          	addi	zero,s4,512
80000700:	5755cb37          	lui	s6,0x5755c
80000704:	0146                	slli	sp,sp,0x11
80000706:	5614c013          	xori	zero,s1,1377
8000070a:	004fda93          	srli	s5,t6,0x4
8000070e:	15fd                	addi	a1,a1,-1 # 10375147 <_start-0x6fc8aeb9>
80000710:	0067a333          	slt	t1,a5,t1
80000714:	00502433          	sgtz	s0,t0
80000718:	50fd                	li	ra,-1
8000071a:	0190                	addi	a2,sp,192
8000071c:	9bea                	add	s7,s7,s10
8000071e:	935e                	add	t1,t1,s7
80000720:	02658b33          	mul	s6,a1,t1
80000724:	48272f13          	slti	t5,a4,1154
80000728:	82b1                	srli	a3,a3,0xc
8000072a:	8ef5                	and	a3,a3,a3
8000072c:	022486b3          	mul	a3,s1,sp
80000730:	35037813          	andi	a6,t1,848
80000734:	41535333          	sra	t1,t1,s5
80000738:	00be8ab3          	add	s5,t4,a1
8000073c:	00c9                	addi	ra,ra,18 # 13012 <_start-0x7ffecfee>
8000073e:	8e95                	sub	a3,a3,a3
80000740:	8699                	srai	a3,a3,0x6
80000742:	0001                	nop
80000744:	0194                	addi	a3,sp,192
80000746:	6225                	lui	tp,0x9
80000748:	c985ca93          	xori	s5,a1,-872
8000074c:	012c9013          	slli	zero,s9,0x12
80000750:	8ef9                	and	a3,a3,a4
80000752:	03a8bb13          	sltiu	s6,a7,58
80000756:	90b2                	add	ra,ra,a2
80000758:	022bb933          	mulhu	s2,s7,sp
8000075c:	00e09393          	slli	t2,ra,0xe
80000760:	66b9                	lui	a3,0xe
80000762:	b243b093          	sltiu	ra,t2,-1244
80000766:	0001                	nop
80000768:	8eed                	and	a3,a3,a1
8000076a:	41af8433          	sub	s0,t6,s10
8000076e:	0a0e3013          	sltiu	zero,t3,160
80000772:	52b7f917          	auipc	s2,0x52b7f
80000776:	65f1                	lui	a1,0x1c
80000778:	00cd3533          	sltu	a0,s10,a2
8000077c:	4e5c6513          	ori	a0,s8,1253
80000780:	015ea833          	slt	a6,t4,s5
80000784:	270d8017          	auipc	zero,0x270d8
80000788:	0375cab3          	div	s5,a1,s7
8000078c:	03875eb3          	divu	t4,a4,s8
80000790:	0579                	addi	a0,a0,30
80000792:	01d59c93          	slli	s9,a1,0x1d
80000796:	86f5                	srai	a3,a3,0x1d
80000798:	8eb5                	xor	a3,a3,a3
8000079a:	03bc5433          	divu	s0,s8,s11
8000079e:	00655493          	srli	s1,a0,0x6
800007a2:	030bea33          	rem	s4,s7,a6
800007a6:	520b8993          	addi	s3,s7,1312 # 608d6520 <_start-0x1f729ae0>
800007aa:	01b946b3          	xor	a3,s2,s11
800007ae:	8ed5                	or	a3,a3,a3
800007b0:	40065e13          	srai	t3,a2,0x0
800007b4:	01aafc33          	and	s8,s5,s10
800007b8:	039dd433          	divu	s0,s11,s9
800007bc:	80b6                	mv	ra,a3
800007be:	e4eaf993          	andi	s3,s5,-434
800007c2:	00856e33          	or	t3,a0,s0
800007c6:	09f6                	slli	s3,s3,0x1d
800007c8:	002bd013          	srli	zero,s7,0x2
800007cc:	034b0033          	mul	zero,s6,s4
800007d0:	8ed5                	or	a3,a3,a3
800007d2:	0001                	nop
800007d4:	011ad593          	srli	a1,s5,0x11
800007d8:	024fda33          	divu	s4,t6,tp
800007dc:	82e9                	srli	a3,a3,0x1a
800007de:	8e95                	sub	a3,a3,a3
800007e0:	01bb1593          	slli	a1,s6,0x1b
800007e4:	0494                	addi	a3,sp,576
800007e6:	daf9c193          	xori	gp,s3,-593
800007ea:	0094                	addi	a3,sp,64
800007ec:	9afd                	andi	a3,a3,-1
800007ee:	58fd                	li	a7,-1
800007f0:	036280b3          	mul	ra,t0,s6
800007f4:	23d2ae13          	slti	t3,t0,573
800007f8:	8ef5                	and	a3,a3,a3
800007fa:	034d93b3          	mulh	t2,s11,s4
800007fe:	8ed5                	or	a3,a3,a3
80000800:	02864ab3          	div	s5,a2,s0
80000804:	415a54b3          	sra	s1,s4,s5
80000808:	8ed5                	or	a3,a3,a3
8000080a:	030fb033          	mulhu	zero,t6,a6
8000080e:	9162                	add	sp,sp,s8
80000810:	40350d33          	sub	s10,a0,gp
80000814:	69b1                	lui	s3,0xc
80000816:	405ade93          	srai	t4,s5,0x5
8000081a:	84d9                	srai	s1,s1,0x16
8000081c:	0756                	slli	a4,a4,0x15
8000081e:	821a                	mv	tp,t1
80000820:	8724a1b7          	lui	gp,0x8724a
80000824:	01b15013          	srli	zero,sp,0x1b
80000828:	40cfd813          	srai	a6,t6,0xc
8000082c:	9afd                	andi	a3,a3,-1
8000082e:	018bd933          	srl	s2,s7,s8
80000832:	01f4f033          	and	zero,s1,t6
80000836:	02a9b013          	sltiu	zero,s3,42
8000083a:	00444d33          	xor	s10,s0,tp
8000083e:	03856033          	rem	zero,a0,s8
80000842:	408dd813          	srai	a6,s11,0x8
80000846:	9fca0017          	auipc	zero,0x9fca0
8000084a:	02792f33          	mulhsu	t5,s2,t2
8000084e:	00a3e2b3          	or	t0,t2,a0
80000852:	809e                	mv	ra,t2
80000854:	01df5233          	srl	tp,t5,t4
80000858:	02164133          	div	sp,a2,ra
8000085c:	8949                	andi	a0,a0,18
8000085e:	8f19                	sub	a4,a4,a4
80000860:	8e95                	sub	a3,a3,a3
80000862:	38b2c193          	xori	gp,t0,907
80000866:	63c1                	lui	t2,0x10
80000868:	03a69bb3          	mulh	s7,a3,s10
8000086c:	5f7d                	li	t5,-1
8000086e:	9156                	add	sp,sp,s5
80000870:	10fd                	addi	ra,ra,-1
80000872:	02829f33          	mulh	t5,t0,s0
80000876:	02b8b133          	mulhu	sp,a7,a1
8000087a:	02b8e933          	rem	s2,a7,a1
8000087e:	007c9593          	slli	a1,s9,0x7
80000882:	62fd                	lui	t0,0x1f
80000884:	b21e1b97          	auipc	s7,0xb21e1
80000888:	890d                	andi	a0,a0,3
8000088a:	029a                	slli	t0,t0,0x6
8000088c:	031639b3          	mulhu	s3,a2,a7
80000890:	86e1                	srai	a3,a3,0x18
80000892:	00e1c033          	xor	zero,gp,a4
80000896:	58fd                	li	a7,-1
80000898:	8ea1                	xor	a3,a3,s0
8000089a:	054a                	slli	a0,a0,0x12
8000089c:	90a2                	add	ra,ra,s0
8000089e:	010f1013          	slli	zero,t5,0x10
800008a2:	02681233          	mulh	tp,a6,t1
800008a6:	8cb5                	xor	s1,s1,a3
800008a8:	82b9                	srli	a3,a3,0xe
800008aa:	0021c933          	xor	s2,gp,sp
800008ae:	b1eaf893          	andi	a7,s5,-1250
800008b2:	5e687013          	andi	zero,a6,1510
800008b6:	f71ae013          	ori	zero,s5,-143
800008ba:	01c988b3          	add	a7,s3,t3
800008be:	717d                	addi	sp,sp,-16
800008c0:	717d                	addi	sp,sp,-16
800008c2:	6131                	addi	sp,sp,320
800008c4:	8f35                	xor	a4,a4,a3
800008c6:	3a087a13          	andi	s4,a6,928
800008ca:	4025d693          	srai	a3,a1,0x2
800008ce:	41d65813          	srai	a6,a2,0x1d
800008d2:	01705b93          	srli	s7,zero,0x17
800008d6:	00f55733          	srl	a4,a0,a5
800008da:	4409b337          	lui	t1,0x4409b
800008de:	0001                	nop
800008e0:	016a9733          	sll	a4,s5,s6
800008e4:	82ad                	srli	a3,a3,0xb
800008e6:	3882d517          	auipc	a0,0x3882d
800008ea:	029a3d33          	mulhu	s10,s4,s1
800008ee:	717d                	addi	sp,sp,-16
800008f0:	8ed5                	or	a3,a3,a3
800008f2:	0f0d                	addi	t5,t5,3
800008f4:	71174f37          	lui	t5,0x71174
800008f8:	906f0f13          	addi	t5,t5,-1786 # 71173906 <_start-0xee8c6fa>
800008fc:	4701                	li	a4,0
800008fe:	4d01                	li	s10,0
80000900:	4c02c937          	lui	s2,0x4c02c
80000904:	8d590913          	addi	s2,s2,-1835 # 4c02b8d5 <_start-0x33fd472b>
80000908:	4105                	li	sp,1
8000090a:	4e05                	li	t3,1
8000090c:	4e81                	li	t4,0
8000090e:	4081                	li	ra,0
80000910:	4601                	li	a2,0
80000912:	4681                	li	a3,0
80000914:	1633df37          	lui	t5,0x1633d
80000918:	974a                	add	a4,a4,s2
8000091a:	03952b33          	mulhsu	s6,a0,s9
8000091e:	8e95                	sub	a3,a3,a3
80000920:	5619f037          	lui	zero,0x5619f
80000924:	51fd                	li	gp,-1
80000926:	40ef8033          	sub	zero,t6,a4
8000092a:	02f70033          	mul	zero,a4,a5
8000092e:	032f6cb3          	rem	s9,t5,s2
80000932:	0894                	addi	a3,sp,80
80000934:	02ec5533          	divu	a0,s8,a4
80000938:	8d56                	mv	s10,s5
8000093a:	0001                	nop
8000093c:	03e4cab3          	div	s5,s1,t5
80000940:	95e2                	add	a1,a1,s8
80000942:	40b28113          	addi	sp,t0,1035 # 1f40b <_start-0x7ffe0bf5>
80000946:	2bb54117          	auipc	sp,0x2bb54
8000094a:	69d9                	lui	s3,0x16
8000094c:	03361333          	mulh	t1,a2,s3
80000950:	0298                	addi	a4,sp,320
80000952:	0001                	nop
80000954:	99b2                	add	s3,s3,a2
80000956:	613d                	addi	sp,sp,480
80000958:	5868c497          	auipc	s1,0x5868c
8000095c:	f2212337          	lui	t1,0xf2212
80000960:	03ddad33          	mulhsu	s10,s11,t4
80000964:	90dc0393          	addi	t2,s8,-1779 # 390d <_start-0x7fffc6f3>
80000968:	8e95                	sub	a3,a3,a3
8000096a:	001b63b3          	or	t2,s6,ra
8000096e:	02b89033          	mulh	zero,a7,a1
80000972:	009f9a33          	sll	s4,t6,s1
80000976:	82c1                	srli	a3,a3,0x10
80000978:	018f1593          	slli	a1,t5,0x18
8000097c:	43d03893          	sltiu	a7,zero,1085
80000980:	0111c733          	xor	a4,gp,a7
80000984:	00678bb3          	add	s7,a5,t1
80000988:	7d401097          	auipc	ra,0x7d401
8000098c:	7e032f37          	lui	t5,0x7e032
80000990:	db4f0f13          	addi	t5,t5,-588 # 7e031db4 <_start-0x1fce24c>
80000994:	4e81                	li	t4,0
80000996:	4581                	li	a1,0
80000998:	4d01                	li	s10,0
8000099a:	4305                	li	t1,1
8000099c:	4905                	li	s2,1
8000099e:	4e01                	li	t3,0
800009a0:	4c85                	li	s9,1
800009a2:	4c01                	li	s8,0
800009a4:	4485                	li	s1,1
800009a6:	038835b3          	mulhu	a1,a6,s8
800009aa:	a5d20193          	addi	gp,tp,-1443 # 8a5d <_start-0x7fff75a3>
800009ae:	8e95                	sub	a3,a3,a3
800009b0:	037b9eb3          	mulh	t4,s7,s7
800009b4:	030c0d33          	mul	s10,s8,a6
800009b8:	6751                	lui	a4,0x14
800009ba:	6f1d                	lui	t5,0x7
800009bc:	6105                	addi	sp,sp,32
800009be:	f5fce837          	lui	a6,0xf5fce
800009c2:	02a1ad33          	mulhsu	s10,gp,a0
800009c6:	0001                	nop
800009c8:	02a64533          	div	a0,a2,a0
800009cc:	6f5c3697          	auipc	a3,0x6f5c3
800009d0:	03083333          	mulhu	t1,a6,a6
800009d4:	0001                	nop
800009d6:	02602633          	mulhsu	a2,zero,t1
800009da:	03feb233          	mulhu	tp,t4,t6
800009de:	40c5                	li	ra,17
800009e0:	005d0a33          	add	s4,s10,t0
800009e4:	0001                	nop
800009e6:	10fd                	addi	ra,ra,-1 # fd401987 <STACK+0xd3b6cf7>
800009e8:	0001                	nop
800009ea:	0001                	nop
800009ec:	d8c68913          	addi	s2,a3,-628 # ef5c3758 <_end+0x6f5c1a62>
800009f0:	0001                	nop
800009f2:	88ee                	mv	a7,s11
800009f4:	80f6                	mv	ra,t4
800009f6:	1094                	addi	a3,sp,96
800009f8:	02a485b7          	lui	a1,0x2a48
800009fc:	03e6bc33          	mulhu	s8,a3,t5
80000a00:	8eb5                	xor	a3,a3,a3
80000a02:	00ab5393          	srli	t2,s6,0xa
80000a06:	9afd                	andi	a3,a3,-1
80000a08:	8ee9                	and	a3,a3,a0
80000a0a:	01be1f13          	slli	t5,t3,0x1b
80000a0e:	00492033          	slt	zero,s2,tp
80000a12:	00b15593          	srli	a1,sp,0xb
80000a16:	59c2f917          	auipc	s2,0x59c2f
80000a1a:	014d5cb3          	srl	s9,s10,s4
80000a1e:	4d7f0893          	addi	a7,t5,1239 # 74d7 <_start-0x7fff8b29>
80000a22:	c519d717          	auipc	a4,0xc519d
80000a26:	8eb5                	xor	a3,a3,a3
80000a28:	00bac333          	xor	t1,s5,a1
80000a2c:	01b2f833          	and	a6,t0,s11
80000a30:	92e11117          	auipc	sp,0x92e11
80000a34:	0225d033          	divu	zero,a1,sp
80000a38:	9c0d0293          	addi	t0,s10,-1600
80000a3c:	036143b3          	div	t2,sp,s6
80000a40:	028b1f33          	mulh	t5,s6,s0
80000a44:	03da                	slli	t2,t2,0x16
80000a46:	8ef5                	and	a3,a3,a3
80000a48:	86b5                	srai	a3,a3,0xd
80000a4a:	8ef5                	and	a3,a3,a3
80000a4c:	0001                	nop
80000a4e:	008961b3          	or	gp,s2,s0
80000a52:	00abf933          	and	s2,s7,a0
80000a56:	0001                	nop
80000a58:	021e3133          	mulhu	sp,t3,ra
80000a5c:	2251e993          	ori	s3,gp,549
80000a60:	28e8c413          	xori	s0,a7,654
80000a64:	eed1cd13          	xori	s10,gp,-275
80000a68:	8e95                	sub	a3,a3,a3
80000a6a:	10fd                	addi	ra,ra,-1
80000a6c:	00c3e333          	or	t1,t2,a2
80000a70:	007adf13          	srli	t5,s5,0x7
80000a74:	03cbc333          	div	t1,s7,t3
80000a78:	01bd9bb3          	sll	s7,s11,s11
80000a7c:	41e85333          	sra	t1,a6,t5
80000a80:	008919b3          	sll	s3,s2,s0
80000a84:	01b44733          	xor	a4,s0,s11
80000a88:	31444e93          	xori	t4,s0,788
80000a8c:	0360c4b3          	div	s1,ra,s6
80000a90:	0001                	nop
80000a92:	008a23b3          	slt	t2,s4,s0
80000a96:	01639033          	sll	zero,t2,s6
80000a9a:	024ead33          	mulhsu	s10,t4,tp
80000a9e:	2a603b93          	sltiu	s7,zero,678
80000aa2:	9d292a93          	slti	s5,s2,-1582
80000aa6:	e06d4013          	xori	zero,s10,-506
80000aaa:	02e70ab3          	mul	s5,a4,a4
80000aae:	032fb0b3          	mulhu	ra,t6,s2
80000ab2:	8e95                	sub	a3,a3,a3
80000ab4:	02282633          	mulhsu	a2,a6,sp
80000ab8:	6211                	lui	tp,0x4
80000aba:	78234b13          	xori	s6,t1,1922
80000abe:	01f49013          	slli	zero,s1,0x1f
80000ac2:	000fc2b3          	xor	t0,t6,zero
80000ac6:	61c0ee13          	ori	t3,ra,1564
80000aca:	0375eb33          	rem	s6,a1,s7
80000ace:	027f0e33          	mul	t3,t5,t2
80000ad2:	925fe193          	ori	gp,t6,-1755
80000ad6:	0e5e                	slli	t3,t3,0x17
80000ad8:	efc38a13          	addi	s4,t2,-260 # fefc <_start-0x7fff0104>
80000adc:	0294                	addi	a3,sp,320
80000ade:	012c3033          	sltu	zero,s8,s2
80000ae2:	01ebb333          	sltu	t1,s7,t5
80000ae6:	018292b3          	sll	t0,t0,s8
80000aea:	024fb5b3          	mulhu	a1,t6,tp
80000aee:	51fd                	li	gp,-1
80000af0:	8ef5                	and	a3,a3,a3
80000af2:	011b6a33          	or	s4,s6,a7
80000af6:	02c6                	slli	t0,t0,0x11
80000af8:	40b65933          	sra	s2,a2,a1
80000afc:	8ef5                	and	a3,a3,a3
80000afe:	2e966437          	lui	s0,0x2e966
80000b02:	717d                	addi	sp,sp,-16
80000b04:	00de44b3          	xor	s1,t3,a3
80000b08:	01552b33          	slt	s6,a0,s5
80000b0c:	89a9                	andi	a1,a1,10
80000b0e:	90f2                	add	ra,ra,t3
80000b10:	01da4d33          	xor	s10,s4,t4
80000b14:	13463293          	sltiu	t0,a2,308
80000b18:	025ae6b3          	rem	a3,s5,t0
80000b1c:	82cd                	srli	a3,a3,0x13
80000b1e:	340a8017          	auipc	zero,0x340a8
80000b22:	8e85                	sub	a3,a3,s1
80000b24:	030e64b3          	rem	s1,t3,a6
80000b28:	f1032113          	slti	sp,t1,-240
80000b2c:	00275c13          	srli	s8,a4,0x2
80000b30:	8e95                	sub	a3,a3,a3
80000b32:	b353a993          	slti	s3,t2,-1227
80000b36:	02090f33          	mul	t5,s2,zero
80000b3a:	036e                	slli	t1,t1,0x1b
80000b3c:	62bd                	lui	t0,0xf
80000b3e:	717d                	addi	sp,sp,-16
80000b40:	03469733          	mulh	a4,a3,s4
80000b44:	0694                	addi	a3,sp,832
80000b46:	03c9dbb3          	divu	s7,s3,t3
80000b4a:	00e5                	addi	ra,ra,25
80000b4c:	6d2d                	lui	s10,0xb
80000b4e:	6d61                	lui	s10,0x18
80000b50:	23d6b017          	auipc	zero,0x23d6b
80000b54:	40765c13          	srai	s8,a2,0x7
80000b58:	8ae9ab13          	slti	s6,s3,-1874
80000b5c:	01ed5b93          	srli	s7,s10,0x1e
80000b60:	8ef5                	and	a3,a3,a3
80000b62:	00546933          	or	s2,s0,t0
80000b66:	8e85                	sub	a3,a3,s1
80000b68:	36d2b313          	sltiu	t1,t0,877
80000b6c:	34bab593          	sltiu	a1,s5,843
80000b70:	0162d493          	srli	s1,t0,0x16
80000b74:	76dc4713          	xori	a4,s8,1901
80000b78:	717d                	addi	sp,sp,-16
80000b7a:	017f1333          	sll	t1,t5,s7
80000b7e:	0001                	nop
80000b80:	41ce0bb3          	sub	s7,t3,t3
80000b84:	0a8a                	slli	s5,s5,0x2
80000b86:	4086da93          	srai	s5,a3,0x8
80000b8a:	7a89ab13          	slti	s6,s3,1960
80000b8e:	8ea1                	xor	a3,a3,s0
80000b90:	0412                	slli	s0,s0,0x4
80000b92:	127d                	addi	tp,tp,-1 # 3fff <_start-0x7fffc001>
80000b94:	03cbe933          	rem	s2,s7,t3
80000b98:	864a                	mv	a2,s2
80000b9a:	035abeb3          	mulhu	t4,s5,s5
80000b9e:	01dde533          	or	a0,s11,t4
80000ba2:	414dd233          	sra	tp,s11,s4
80000ba6:	73bfb613          	sltiu	a2,t6,1851
80000baa:	405dd913          	srai	s2,s11,0x5
80000bae:	ed6be113          	ori	sp,s7,-298
80000bb2:	86a9                	srai	a3,a3,0xa
80000bb4:	0152acb3          	slt	s9,t0,s5
80000bb8:	0075a733          	slt	a4,a1,t2
80000bbc:	0396e533          	rem	a0,a3,s9
80000bc0:	00b16ab3          	or	s5,sp,a1
80000bc4:	410d5913          	srai	s2,s10,0x10
80000bc8:	0001                	nop
80000bca:	73038013          	addi	zero,t2,1840
80000bce:	0261bbb3          	mulhu	s7,gp,t1
80000bd2:	017540b3          	xor	ra,a0,s7
80000bd6:	8ed5                	or	a3,a3,a3
80000bd8:	8ad1                	andi	a3,a3,20
80000bda:	0022b533          	sltu	a0,t0,sp
80000bde:	941a                	add	s0,s0,t1
80000be0:	8ec5                	or	a3,a3,s1
80000be2:	00990033          	add	zero,s2,s1
80000be6:	8c75                	and	s0,s0,a3
80000be8:	005bfeb3          	and	t4,s7,t0
80000bec:	0be6                	slli	s7,s7,0x19
80000bee:	02492e33          	mulhsu	t3,s2,tp
80000bf2:	01e062b3          	or	t0,zero,t5
80000bf6:	8eb5                	xor	a3,a3,a3
80000bf8:	6465                	lui	s0,0x19
80000bfa:	01e8e733          	or	a4,a7,t5
80000bfe:	01f1b9b3          	sltu	s3,gp,t6
80000c02:	4f008113          	addi	sp,ra,1264
80000c06:	86cd                	srai	a3,a3,0x13
80000c08:	717d                	addi	sp,sp,-16
80000c0a:	8eb5                	xor	a3,a3,a3
80000c0c:	628b4637          	lui	a2,0x628b4
80000c10:	75860613          	addi	a2,a2,1880 # 628b4758 <_start-0x1d74b8a8>
80000c14:	4f01                	li	t5,0
80000c16:	4e81                	li	t4,0
80000c18:	4e05                	li	t3,1
80000c1a:	4c81                	li	s9,0
80000c1c:	550c3b37          	lui	s6,0x550c3
80000c20:	836b0b13          	addi	s6,s6,-1994 # 550c2836 <_start-0x2af3d7ca>
80000c24:	7532dc37          	lui	s8,0x7532d
80000c28:	42cc0c13          	addi	s8,s8,1068 # 7532d42c <_start-0xacd2bd4>
80000c2c:	4205                	li	tp,1
80000c2e:	4a01                	li	s4,0
80000c30:	4701                	li	a4,0
80000c32:	0001                	nop
80000c34:	0001                	nop
80000c36:	02d0c5b3          	div	a1,ra,a3
80000c3a:	1604                	addi	s1,sp,800
80000c3c:	0240d233          	divu	tp,ra,tp
80000c40:	01a78c33          	add	s8,a5,s10
80000c44:	03255533          	divu	a0,a0,s2
80000c48:	0387c4b3          	div	s1,a5,s8
80000c4c:	0474af17          	auipc	t5,0x474a
80000c50:	23988413          	addi	s0,a7,569 # 19239 <_start-0x7ffe6dc7>
80000c54:	02c14ab3          	div	s5,sp,a2
80000c58:	035f6a33          	rem	s4,t5,s5
80000c5c:	0594                	addi	a3,sp,704
80000c5e:	0e69                	addi	t3,t3,26 # 2165e01a <_start-0x5e9a1fe6>
80000c60:	908e                	add	ra,ra,gp
80000c62:	8f3a                	mv	t5,a4
80000c64:	681d                	lui	a6,0x7
80000c66:	02e18833          	mul	a6,gp,a4
80000c6a:	0001                	nop
80000c6c:	9afd                	andi	a3,a3,-1
80000c6e:	01ce5833          	srl	a6,t3,t3
80000c72:	038913b3          	mulh	t2,s2,s8
80000c76:	8eb5                	xor	a3,a3,a3
80000c78:	61734e93          	xori	t4,t1,1559
80000c7c:	03710e33          	mul	t3,sp,s7
80000c80:	00b1                	addi	ra,ra,12
80000c82:	bf87a893          	slti	a7,a5,-1032
80000c86:	00ae6133          	or	sp,t3,a0
80000c8a:	35df0993          	addi	s3,t5,861 # 8474afa9 <_end+0x47492b3>
80000c8e:	8acd                	andi	a3,a3,19
80000c90:	003d1a13          	slli	s4,s10,0x3
80000c94:	008ea133          	slt	sp,t4,s0
80000c98:	6135                	addi	sp,sp,352
80000c9a:	d6e32213          	slti	tp,t1,-658
80000c9e:	82e6                	mv	t0,s9
80000ca0:	9eba                	add	t4,t4,a4
80000ca2:	0202d233          	divu	tp,t0,zero
80000ca6:	013c5033          	srl	zero,s8,s3
80000caa:	3aee4813          	xori	a6,t3,942
80000cae:	1afd                	addi	s5,s5,-1
80000cb0:	8e95                	sub	a3,a3,a3
80000cb2:	003bb9b3          	sltu	s3,s7,gp
80000cb6:	02f6b833          	mulhu	a6,a3,a5
80000cba:	8e95                	sub	a3,a3,a3
80000cbc:	01cf5713          	srli	a4,t5,0x1c
80000cc0:	870d                	srai	a4,a4,0x3
80000cc2:	01da5433          	srl	s0,s4,t4
80000cc6:	0269acb3          	mulhsu	s9,s3,t1
80000cca:	0283e833          	rem	a6,t2,s0
80000cce:	40a55a93          	srai	s5,a0,0xa
80000cd2:	0342a333          	mulhsu	t1,t0,s4
80000cd6:	1d7cc693          	xori	a3,s9,471
80000cda:	415b5333          	sra	t1,s6,s5
80000cde:	8906                	mv	s2,ra
80000ce0:	0001d5b3          	srl	a1,gp,zero
80000ce4:	85e1                	srai	a1,a1,0x18
80000ce6:	95fe                	add	a1,a1,t6
80000ce8:	9d0a                	add	s10,s10,sp
80000cea:	419288b3          	sub	a7,t0,s9
80000cee:	03b79e33          	mulh	t3,a5,s11
80000cf2:	023f2333          	mulhsu	t1,t5,gp
80000cf6:	03588033          	mul	zero,a7,s5
80000cfa:	038453b3          	divu	t2,s0,s8
80000cfe:	d7b3e193          	ori	gp,t2,-645
80000d02:	ca164013          	xori	zero,a2,-863
80000d06:	1afd                	addi	s5,s5,-1
80000d08:	8299                	srli	a3,a3,0x6
80000d0a:	65417413          	andi	s0,sp,1620
80000d0e:	9caa                	add	s9,s9,a0
80000d10:	021a1633          	mulh	a2,s4,ra
80000d14:	032ee8b3          	rem	a7,t4,s2
80000d18:	0102b333          	sltu	t1,t0,a6
80000d1c:	8ee1                	and	a3,a3,s0
80000d1e:	54fd                	li	s1,-1
80000d20:	40325ab3          	sra	s5,tp,gp
80000d24:	ddfcdf37          	lui	t5,0xddfcd
80000d28:	8eb5                	xor	a3,a3,a3
80000d2a:	033343b3          	div	t2,t1,s3
80000d2e:	972e3213          	sltiu	tp,t3,-1678
80000d32:	86c9                	srai	a3,a3,0x12
80000d34:	8ab5                	andi	a3,a3,13
80000d36:	86d5                	srai	a3,a3,0x15
80000d38:	8ed5                	or	a3,a3,a3
80000d3a:	6be9                	lui	s7,0x1a
80000d3c:	96606413          	ori	s0,zero,-1690
80000d40:	02288eb3          	mul	t4,a7,sp
80000d44:	fddea893          	slti	a7,t4,-35
80000d48:	40515393          	srai	t2,sp,0x5
80000d4c:	ce796093          	ori	ra,s2,-793
80000d50:	0056eab3          	or	s5,a3,t0
80000d54:	0c4a                	slli	s8,s8,0x12
80000d56:	02583ab3          	mulhu	s5,a6,t0
80000d5a:	8ed5                	or	a3,a3,a3
80000d5c:	8ec6                	mv	t4,a7
80000d5e:	00c99033          	sll	zero,s3,a2
80000d62:	8666                	mv	a2,s9
80000d64:	1494                	addi	a3,sp,608
80000d66:	8eb5                	xor	a3,a3,a3
80000d68:	941e                	add	s0,s0,t2
80000d6a:	01038733          	add	a4,t2,a6
80000d6e:	717d                	addi	sp,sp,-16
80000d70:	02499633          	mulh	a2,s3,tp
80000d74:	41875e33          	sra	t3,a4,s8
80000d78:	0326d033          	divu	zero,a3,s2
80000d7c:	9c76                	add	s8,s8,t4
80000d7e:	8dea2f37          	lui	t5,0x8dea2
80000d82:	f121ea13          	ori	s4,gp,-238
80000d86:	40695813          	srai	a6,s2,0x6
80000d8a:	49866013          	ori	zero,a2,1176
80000d8e:	8779                	srai	a4,a4,0x1e
80000d90:	8e95                	sub	a3,a3,a3
80000d92:	717d                	addi	sp,sp,-16
80000d94:	8eb5                	xor	a3,a3,a3
80000d96:	f5b31617          	auipc	a2,0xf5b31
80000d9a:	5ebc2a93          	slti	s5,s8,1515
80000d9e:	53f72493          	slti	s1,a4,1343
80000da2:	9d2e                	add	s10,s10,a1
80000da4:	9672                	add	a2,a2,t3
80000da6:	56e7ed37          	lui	s10,0x56e7e
80000daa:	00225c93          	srli	s9,tp,0x2
80000dae:	6d6d                	lui	s10,0x1b
80000db0:	8129                	srli	a0,a0,0xa
80000db2:	8d15                	sub	a0,a0,a3
80000db4:	83d2                	mv	t2,s4
80000db6:	403a5c13          	srai	s8,s4,0x3
80000dba:	40b1                	li	ra,12
80000dbc:	03ad88b3          	mul	a7,s11,s10
80000dc0:	01c15033          	srl	zero,sp,t3
80000dc4:	80de                	mv	ra,s7
80000dc6:	75bfc013          	xori	zero,t6,1883
80000dca:	0259e233          	rem	tp,s3,t0
80000dce:	6a9a2013          	slti	zero,s4,1705
80000dd2:	cbcbb193          	sltiu	gp,s7,-836
80000dd6:	822d                	srli	a2,a2,0xb
80000dd8:	547d                	li	s0,-1
80000dda:	9d76                	add	s10,s10,t4
80000ddc:	40c158b3          	sra	a7,sp,a2
80000de0:	34e69bb7          	lui	s7,0x34e69
80000de4:	582c6393          	ori	t2,s8,1410
80000de8:	0001                	nop
80000dea:	0001                	nop
80000dec:	0001                	nop
80000dee:	52422413          	slti	s0,tp,1316
80000df2:	8f15                	sub	a4,a4,a3
80000df4:	9b7d                	andi	a4,a4,-1
80000df6:	01179033          	sll	zero,a5,a7
80000dfa:	0001                	nop
80000dfc:	00ca5a93          	srli	s5,s4,0xc
80000e00:	0001                	nop
80000e02:	2af73013          	sltiu	zero,a4,687
80000e06:	0359b333          	mulhu	t1,s3,s5
80000e0a:	00652133          	slt	sp,a0,t1
80000e0e:	016319b3          	sll	s3,t1,s6
80000e12:	86c1                	srai	a3,a3,0x10
80000e14:	0001                	nop
80000e16:	85c1                	srai	a1,a1,0x10
80000e18:	00599033          	sll	zero,s3,t0
80000e1c:	1914                	addi	a3,sp,176
80000e1e:	13fd                	addi	t2,t2,-1
80000e20:	00f9df33          	srl	t5,s3,a5
80000e24:	84470c37          	lui	s8,0x84470
80000e28:	008c9c33          	sll	s8,s9,s0
80000e2c:	401a5d33          	sra	s10,s4,ra
80000e30:	0178d093          	srli	ra,a7,0x17
80000e34:	86fd                	srai	a3,a3,0x1f
80000e36:	40920733          	sub	a4,tp,s1
80000e3a:	0001                	nop
80000e3c:	4196d6b3          	sra	a3,a3,s9
80000e40:	0d1b3597          	auipc	a1,0xd1b3
80000e44:	009bca33          	xor	s4,s7,s1
80000e48:	00a036b3          	snez	a3,a0
80000e4c:	02c9c3b3          	div	t2,s3,a2
80000e50:	03393733          	mulhu	a4,s2,s3
80000e54:	0001                	nop
80000e56:	02a73333          	mulhu	t1,a4,a0
80000e5a:	bab2bb93          	sltiu	s7,t0,-1109
80000e5e:	007ca433          	slt	s0,s9,t2
80000e62:	00344ab3          	xor	s5,s0,gp
80000e66:	8ef5                	and	a3,a3,a3
80000e68:	831e                	mv	t1,t2
80000e6a:	82eca813          	slti	a6,s9,-2002
80000e6e:	027068b3          	rem	a7,zero,t2
80000e72:	02c499b3          	mulh	s3,s1,a2
80000e76:	82f5                	srli	a3,a3,0x1d
80000e78:	0b06                	slli	s6,s6,0x1
80000e7a:	40715693          	srai	a3,sp,0x7
80000e7e:	028a8033          	mul	zero,s5,s0
80000e82:	197d                	addi	s2,s2,-1 # d9c2fa15 <_end+0x59c2dd1f>
80000e84:	02f89433          	mulh	s0,a7,a5
80000e88:	0001                	nop
80000e8a:	a3096213          	ori	tp,s2,-1488
80000e8e:	01355a13          	srli	s4,a0,0x13
80000e92:	8af1                	andi	a3,a3,28
80000e94:	031811b3          	mulh	gp,a6,a7
80000e98:	e0adf013          	andi	zero,s11,-502
80000e9c:	00956cb3          	or	s9,a0,s1
80000ea0:	0001                	nop
80000ea2:	9a18c817          	auipc	a6,0x9a18c
80000ea6:	8e35                	xor	a2,a2,a3
80000ea8:	01ae90b3          	sll	ra,t4,s10
80000eac:	0294e8b3          	rem	a7,s1,s1
80000eb0:	02eda933          	mulhsu	s2,s11,a4
80000eb4:	0286                	slli	t0,t0,0x1
80000eb6:	01292133          	slt	sp,s2,s2
80000eba:	035b83b3          	mul	t2,s7,s5
80000ebe:	03b599b3          	mulh	s3,a1,s11
80000ec2:	8d15                	sub	a0,a0,a3
80000ec4:	1afd                	addi	s5,s5,-1
80000ec6:	02ece5b3          	rem	a1,s9,a4
80000eca:	41228033          	sub	zero,t0,s2
80000ece:	0e10f193          	andi	gp,ra,225
80000ed2:	8106                	mv	sp,ra
80000ed4:	9546                	add	a0,a0,a7
80000ed6:	a26b7e93          	andi	t4,s6,-1498
80000eda:	987a                	add	a6,a6,t5
80000edc:	d3228a13          	addi	s4,t0,-718 # ed32 <_start-0x7fff12ce>
80000ee0:	b9b02693          	slti	a3,zero,-1125
80000ee4:	4f433d13          	sltiu	s10,t1,1268
80000ee8:	01012733          	slt	a4,sp,a6
80000eec:	9f690593          	addi	a1,s2,-1546
80000ef0:	9a7d                	andi	a2,a2,-1
80000ef2:	02314a33          	div	s4,sp,gp
80000ef6:	e3482b13          	slti	s6,a6,-460
80000efa:	014f33b3          	sltu	t2,t5,s4
80000efe:	029923b3          	mulhsu	t2,s2,s1
80000f02:	83f2f293          	andi	t0,t0,-1985
80000f06:	8650f893          	andi	a7,ra,-1947
80000f0a:	80aa                	mv	ra,a0
80000f0c:	4fde9297          	auipc	t0,0x4fde9
80000f10:	41990833          	sub	a6,s2,s9
80000f14:	0168dc33          	srl	s8,a7,s6
80000f18:	003e22b3          	slt	t0,t3,gp
80000f1c:	6115                	addi	sp,sp,288
80000f1e:	00095513          	srli	a0,s2,0x0
80000f22:	031dbeb3          	mulhu	t4,s11,a7
80000f26:	88be                	mv	a7,a5
80000f28:	0001                	nop
80000f2a:	007ebbb3          	sltu	s7,t4,t2
80000f2e:	00352933          	slt	s2,a0,gp
80000f32:	02ade733          	rem	a4,s11,a0
80000f36:	8ed5                	or	a3,a3,a3
80000f38:	8eb5                	xor	a3,a3,a3
80000f3a:	029dc3b3          	div	t2,s11,s1
80000f3e:	00e96933          	or	s2,s2,a4
80000f42:	13153917          	auipc	s2,0x13153
80000f46:	4103d913          	srai	s2,t2,0x10
80000f4a:	80e6                	mv	ra,s9
80000f4c:	407e0033          	sub	zero,t3,t2
80000f50:	03259533          	mulh	a0,a1,s2
80000f54:	40ad5633          	sra	a2,s10,a0
80000f58:	6a6d                	lui	s4,0x1b
80000f5a:	89e1                	andi	a1,a1,24
80000f5c:	0001                	nop
80000f5e:	01e695b3          	sll	a1,a3,t5
80000f62:	00639a13          	slli	s4,t2,0x6
80000f66:	03d219b3          	mulh	s3,tp,t4
80000f6a:	8e89                	sub	a3,a3,a0
80000f6c:	41d45093          	srai	ra,s0,0x1d
80000f70:	03935cb3          	divu	s9,t1,s9
80000f74:	484cd017          	auipc	zero,0x484cd
80000f78:	978dcc13          	xori	s8,s11,-1672
80000f7c:	12f53913          	sltiu	s2,a0,303
80000f80:	91383013          	sltiu	zero,a6,-1773
80000f84:	0694                	addi	a3,sp,832
80000f86:	03431933          	mulh	s2,t1,s4
80000f8a:	6e67e893          	ori	a7,a5,1766
80000f8e:	630d                	lui	t1,0x3
80000f90:	6121                	addi	sp,sp,64
80000f92:	157d                	addi	a0,a0,-1 # b882d8e5 <_end+0x3882bbef>
80000f94:	60a1                	lui	ra,0x8
80000f96:	03a0d2b3          	divu	t0,ra,s10
80000f9a:	239631b7          	lui	gp,0x23963
80000f9e:	01bb4033          	xor	zero,s6,s11
80000fa2:	86ed                	srai	a3,a3,0x1b
80000fa4:	012ca5b3          	slt	a1,s9,s2
80000fa8:	8f35                	xor	a4,a4,a3
80000faa:	717d                	addi	sp,sp,-16
80000fac:	02dd4f33          	div	t5,s10,a3
80000fb0:	04da                	slli	s1,s1,0x16
80000fb2:	024edeb3          	divu	t4,t4,tp
80000fb6:	03fc02b3          	mul	t0,s8,t6
80000fba:	673c1497          	auipc	s1,0x673c1
80000fbe:	8ef5                	and	a3,a3,a3
80000fc0:	84f5                	srai	s1,s1,0x1d
80000fc2:	00755593          	srli	a1,a0,0x7
80000fc6:	01dc35b3          	sltu	a1,s8,t4
80000fca:	49dd                	li	s3,23
80000fcc:	6139                	addi	sp,sp,448
80000fce:	6175                	addi	sp,sp,368
80000fd0:	0001                	nop
80000fd2:	03cdc833          	div	a6,s11,t3
80000fd6:	4ac13893          	sltiu	a7,sp,1196
80000fda:	a1706213          	ori	tp,zero,-1513
80000fde:	02023933          	mulhu	s2,tp,zero
80000fe2:	03309433          	mulh	s0,ra,s3
80000fe6:	01c84533          	xor	a0,a6,t3
80000fea:	36ccf013          	andi	zero,s9,876
80000fee:	60cd                	lui	ra,0x13
80000ff0:	8ef5                	and	a3,a3,a3
80000ff2:	0185b933          	sltu	s2,a1,s8
80000ff6:	9afd                	andi	a3,a3,-1
80000ff8:	8b7d                	andi	a4,a4,31
80000ffa:	6a15                	lui	s4,0x5
80000ffc:	8e95                	sub	a3,a3,a3
80000ffe:	036fae33          	mulhsu	t3,t6,s6
80001002:	027f3933          	mulhu	s2,t5,t2
80001006:	026ad5b3          	divu	a1,s5,t1
8000100a:	007756b3          	srl	a3,a4,t2
8000100e:	009d9533          	sll	a0,s11,s1
80001012:	a58e7413          	andi	s0,t3,-1448
80001016:	40ffd333          	sra	t1,t6,a5
8000101a:	8dd5                	or	a1,a1,a3
8000101c:	40b90033          	sub	zero,s2,a1
80001020:	0111dc13          	srli	s8,gp,0x11
80001024:	9afd                	andi	a3,a3,-1
80001026:	41048bb3          	sub	s7,s1,a6
8000102a:	00c6e8b3          	or	a7,a3,a2
8000102e:	9a9a                	add	s5,s5,t1
80001030:	03198eb3          	mul	t4,s3,a7
80001034:	002ab333          	sltu	t1,s5,sp
80001038:	20333a93          	sltiu	s5,t1,515
8000103c:	021020b3          	mulhsu	ra,zero,ra
80001040:	07b6f3b7          	lui	t2,0x7b6f
80001044:	c44ece13          	xori	t3,t4,-956
80001048:	0af1                	addi	s5,s5,28
8000104a:	000318b3          	sll	a7,t1,zero
8000104e:	0514                	addi	a3,sp,640
80001050:	41725c33          	sra	s8,tp,s7
80001054:	01caad33          	slt	s10,s5,t3
80001058:	8ef5                	and	a3,a3,a3
8000105a:	00b6                	slli	ra,ra,0xd
8000105c:	86d1                	srai	a3,a3,0x14
8000105e:	94c7c813          	xori	a6,a5,-1716
80001062:	00e12bb3          	slt	s7,sp,a4
80001066:	40d75b13          	srai	s6,a4,0xd
8000106a:	9096                	add	ra,ra,t0
8000106c:	984a                	add	a6,a6,s2
8000106e:	8ef5                	and	a3,a3,a3
80001070:	00e90133          	add	sp,s2,a4
80001074:	40445013          	srai	zero,s0,0x4
80001078:	90612c37          	lui	s8,0x90612
8000107c:	01cccab3          	xor	s5,s9,t3
80001080:	c205cb13          	xori	s6,a1,-992
80001084:	8291                	srli	a3,a3,0x4
80001086:	00000f97          	auipc	t6,0x0
8000108a:	00cf8f93          	addi	t6,t6,12 # 80001092 <test_done>
8000108e:	000f8067          	jr	t6

80001092 <test_done>:
80001092:	4185                	li	gp,1
80001094:	00000073          	ecall

80001098 <write_tohost>:
80001098:	7003ff17          	auipc	t5,0x7003f
8000109c:	f63f2423          	sw	gp,-152(t5) # f0040000 <tohost>

800010a0 <_exit>:
800010a0:	bfe5                	j	80001098 <write_tohost>

800010a2 <instr_end>:
800010a2:	0001                	nop

800010a4 <mmode_intr_vector_1>:
800010a4:	340d9df3          	csrrw	s11,mscratch,s11
800010a8:	00078db3          	add	s11,a5,zero
800010ac:	f84d8d93          	addi	s11,s11,-124
800010b0:	001da223          	sw	ra,4(s11)
800010b4:	002da423          	sw	sp,8(s11)
800010b8:	003da623          	sw	gp,12(s11)
800010bc:	004da823          	sw	tp,16(s11)
800010c0:	005daa23          	sw	t0,20(s11)
800010c4:	006dac23          	sw	t1,24(s11)
800010c8:	007dae23          	sw	t2,28(s11)
800010cc:	028da023          	sw	s0,32(s11)
800010d0:	029da223          	sw	s1,36(s11)
800010d4:	02ada423          	sw	a0,40(s11)
800010d8:	02bda623          	sw	a1,44(s11)
800010dc:	02cda823          	sw	a2,48(s11)
800010e0:	02ddaa23          	sw	a3,52(s11)
800010e4:	02edac23          	sw	a4,56(s11)
800010e8:	02fdae23          	sw	a5,60(s11)
800010ec:	050da023          	sw	a6,64(s11)
800010f0:	051da223          	sw	a7,68(s11)
800010f4:	052da423          	sw	s2,72(s11)
800010f8:	053da623          	sw	s3,76(s11)
800010fc:	054da823          	sw	s4,80(s11)
80001100:	055daa23          	sw	s5,84(s11)
80001104:	056dac23          	sw	s6,88(s11)
80001108:	057dae23          	sw	s7,92(s11)
8000110c:	078da023          	sw	s8,96(s11)
80001110:	079da223          	sw	s9,100(s11)
80001114:	07ada423          	sw	s10,104(s11)
80001118:	07bda623          	sw	s11,108(s11)
8000111c:	07cda823          	sw	t3,112(s11)
80001120:	07ddaa23          	sw	t4,116(s11)
80001124:	07edac23          	sw	t5,120(s11)
80001128:	07fdae23          	sw	t6,124(s11)
8000112c:	34202f73          	csrr	t5,mcause
80001130:	01ff5f13          	srli	t5,t5,0x1f
80001134:	000f0463          	beqz	t5,8000113c <mmode_intr_vector_1+0x98>
80001138:	3110006f          	j	80001c48 <mmode_intr_handler>
8000113c:	00000f97          	auipc	t6,0x0
80001140:	f56f8f93          	addi	t6,t6,-170 # 80001092 <test_done>
80001144:	000f8067          	jr	t6

80001148 <mmode_intr_vector_2>:
80001148:	340d9df3          	csrrw	s11,mscratch,s11
8000114c:	00078db3          	add	s11,a5,zero
80001150:	f84d8d93          	addi	s11,s11,-124
80001154:	001da223          	sw	ra,4(s11)
80001158:	002da423          	sw	sp,8(s11)
8000115c:	003da623          	sw	gp,12(s11)
80001160:	004da823          	sw	tp,16(s11)
80001164:	005daa23          	sw	t0,20(s11)
80001168:	006dac23          	sw	t1,24(s11)
8000116c:	007dae23          	sw	t2,28(s11)
80001170:	028da023          	sw	s0,32(s11)
80001174:	029da223          	sw	s1,36(s11)
80001178:	02ada423          	sw	a0,40(s11)
8000117c:	02bda623          	sw	a1,44(s11)
80001180:	02cda823          	sw	a2,48(s11)
80001184:	02ddaa23          	sw	a3,52(s11)
80001188:	02edac23          	sw	a4,56(s11)
8000118c:	02fdae23          	sw	a5,60(s11)
80001190:	050da023          	sw	a6,64(s11)
80001194:	051da223          	sw	a7,68(s11)
80001198:	052da423          	sw	s2,72(s11)
8000119c:	053da623          	sw	s3,76(s11)
800011a0:	054da823          	sw	s4,80(s11)
800011a4:	055daa23          	sw	s5,84(s11)
800011a8:	056dac23          	sw	s6,88(s11)
800011ac:	057dae23          	sw	s7,92(s11)
800011b0:	078da023          	sw	s8,96(s11)
800011b4:	079da223          	sw	s9,100(s11)
800011b8:	07ada423          	sw	s10,104(s11)
800011bc:	07bda623          	sw	s11,108(s11)
800011c0:	07cda823          	sw	t3,112(s11)
800011c4:	07ddaa23          	sw	t4,116(s11)
800011c8:	07edac23          	sw	t5,120(s11)
800011cc:	07fdae23          	sw	t6,124(s11)
800011d0:	34202f73          	csrr	t5,mcause
800011d4:	01ff5f13          	srli	t5,t5,0x1f
800011d8:	000f0463          	beqz	t5,800011e0 <mmode_intr_vector_2+0x98>
800011dc:	26d0006f          	j	80001c48 <mmode_intr_handler>
800011e0:	00000f97          	auipc	t6,0x0
800011e4:	eb2f8f93          	addi	t6,t6,-334 # 80001092 <test_done>
800011e8:	000f8067          	jr	t6

800011ec <mmode_intr_vector_3>:
800011ec:	340d9df3          	csrrw	s11,mscratch,s11
800011f0:	00078db3          	add	s11,a5,zero
800011f4:	f84d8d93          	addi	s11,s11,-124
800011f8:	001da223          	sw	ra,4(s11)
800011fc:	002da423          	sw	sp,8(s11)
80001200:	003da623          	sw	gp,12(s11)
80001204:	004da823          	sw	tp,16(s11)
80001208:	005daa23          	sw	t0,20(s11)
8000120c:	006dac23          	sw	t1,24(s11)
80001210:	007dae23          	sw	t2,28(s11)
80001214:	028da023          	sw	s0,32(s11)
80001218:	029da223          	sw	s1,36(s11)
8000121c:	02ada423          	sw	a0,40(s11)
80001220:	02bda623          	sw	a1,44(s11)
80001224:	02cda823          	sw	a2,48(s11)
80001228:	02ddaa23          	sw	a3,52(s11)
8000122c:	02edac23          	sw	a4,56(s11)
80001230:	02fdae23          	sw	a5,60(s11)
80001234:	050da023          	sw	a6,64(s11)
80001238:	051da223          	sw	a7,68(s11)
8000123c:	052da423          	sw	s2,72(s11)
80001240:	053da623          	sw	s3,76(s11)
80001244:	054da823          	sw	s4,80(s11)
80001248:	055daa23          	sw	s5,84(s11)
8000124c:	056dac23          	sw	s6,88(s11)
80001250:	057dae23          	sw	s7,92(s11)
80001254:	078da023          	sw	s8,96(s11)
80001258:	079da223          	sw	s9,100(s11)
8000125c:	07ada423          	sw	s10,104(s11)
80001260:	07bda623          	sw	s11,108(s11)
80001264:	07cda823          	sw	t3,112(s11)
80001268:	07ddaa23          	sw	t4,116(s11)
8000126c:	07edac23          	sw	t5,120(s11)
80001270:	07fdae23          	sw	t6,124(s11)
80001274:	34202f73          	csrr	t5,mcause
80001278:	01ff5f13          	srli	t5,t5,0x1f
8000127c:	000f0463          	beqz	t5,80001284 <mmode_intr_vector_3+0x98>
80001280:	1c90006f          	j	80001c48 <mmode_intr_handler>
80001284:	00000f97          	auipc	t6,0x0
80001288:	e0ef8f93          	addi	t6,t6,-498 # 80001092 <test_done>
8000128c:	000f8067          	jr	t6

80001290 <mmode_intr_vector_4>:
80001290:	340d9df3          	csrrw	s11,mscratch,s11
80001294:	00078db3          	add	s11,a5,zero
80001298:	f84d8d93          	addi	s11,s11,-124
8000129c:	001da223          	sw	ra,4(s11)
800012a0:	002da423          	sw	sp,8(s11)
800012a4:	003da623          	sw	gp,12(s11)
800012a8:	004da823          	sw	tp,16(s11)
800012ac:	005daa23          	sw	t0,20(s11)
800012b0:	006dac23          	sw	t1,24(s11)
800012b4:	007dae23          	sw	t2,28(s11)
800012b8:	028da023          	sw	s0,32(s11)
800012bc:	029da223          	sw	s1,36(s11)
800012c0:	02ada423          	sw	a0,40(s11)
800012c4:	02bda623          	sw	a1,44(s11)
800012c8:	02cda823          	sw	a2,48(s11)
800012cc:	02ddaa23          	sw	a3,52(s11)
800012d0:	02edac23          	sw	a4,56(s11)
800012d4:	02fdae23          	sw	a5,60(s11)
800012d8:	050da023          	sw	a6,64(s11)
800012dc:	051da223          	sw	a7,68(s11)
800012e0:	052da423          	sw	s2,72(s11)
800012e4:	053da623          	sw	s3,76(s11)
800012e8:	054da823          	sw	s4,80(s11)
800012ec:	055daa23          	sw	s5,84(s11)
800012f0:	056dac23          	sw	s6,88(s11)
800012f4:	057dae23          	sw	s7,92(s11)
800012f8:	078da023          	sw	s8,96(s11)
800012fc:	079da223          	sw	s9,100(s11)
80001300:	07ada423          	sw	s10,104(s11)
80001304:	07bda623          	sw	s11,108(s11)
80001308:	07cda823          	sw	t3,112(s11)
8000130c:	07ddaa23          	sw	t4,116(s11)
80001310:	07edac23          	sw	t5,120(s11)
80001314:	07fdae23          	sw	t6,124(s11)
80001318:	34202f73          	csrr	t5,mcause
8000131c:	01ff5f13          	srli	t5,t5,0x1f
80001320:	000f0463          	beqz	t5,80001328 <mmode_intr_vector_4+0x98>
80001324:	1250006f          	j	80001c48 <mmode_intr_handler>
80001328:	00000f97          	auipc	t6,0x0
8000132c:	d6af8f93          	addi	t6,t6,-662 # 80001092 <test_done>
80001330:	000f8067          	jr	t6

80001334 <mmode_intr_vector_5>:
80001334:	340d9df3          	csrrw	s11,mscratch,s11
80001338:	00078db3          	add	s11,a5,zero
8000133c:	f84d8d93          	addi	s11,s11,-124
80001340:	001da223          	sw	ra,4(s11)
80001344:	002da423          	sw	sp,8(s11)
80001348:	003da623          	sw	gp,12(s11)
8000134c:	004da823          	sw	tp,16(s11)
80001350:	005daa23          	sw	t0,20(s11)
80001354:	006dac23          	sw	t1,24(s11)
80001358:	007dae23          	sw	t2,28(s11)
8000135c:	028da023          	sw	s0,32(s11)
80001360:	029da223          	sw	s1,36(s11)
80001364:	02ada423          	sw	a0,40(s11)
80001368:	02bda623          	sw	a1,44(s11)
8000136c:	02cda823          	sw	a2,48(s11)
80001370:	02ddaa23          	sw	a3,52(s11)
80001374:	02edac23          	sw	a4,56(s11)
80001378:	02fdae23          	sw	a5,60(s11)
8000137c:	050da023          	sw	a6,64(s11)
80001380:	051da223          	sw	a7,68(s11)
80001384:	052da423          	sw	s2,72(s11)
80001388:	053da623          	sw	s3,76(s11)
8000138c:	054da823          	sw	s4,80(s11)
80001390:	055daa23          	sw	s5,84(s11)
80001394:	056dac23          	sw	s6,88(s11)
80001398:	057dae23          	sw	s7,92(s11)
8000139c:	078da023          	sw	s8,96(s11)
800013a0:	079da223          	sw	s9,100(s11)
800013a4:	07ada423          	sw	s10,104(s11)
800013a8:	07bda623          	sw	s11,108(s11)
800013ac:	07cda823          	sw	t3,112(s11)
800013b0:	07ddaa23          	sw	t4,116(s11)
800013b4:	07edac23          	sw	t5,120(s11)
800013b8:	07fdae23          	sw	t6,124(s11)
800013bc:	34202f73          	csrr	t5,mcause
800013c0:	01ff5f13          	srli	t5,t5,0x1f
800013c4:	000f0463          	beqz	t5,800013cc <mmode_intr_vector_5+0x98>
800013c8:	0810006f          	j	80001c48 <mmode_intr_handler>
800013cc:	00000f97          	auipc	t6,0x0
800013d0:	cc6f8f93          	addi	t6,t6,-826 # 80001092 <test_done>
800013d4:	000f8067          	jr	t6

800013d8 <mmode_intr_vector_6>:
800013d8:	340d9df3          	csrrw	s11,mscratch,s11
800013dc:	00078db3          	add	s11,a5,zero
800013e0:	f84d8d93          	addi	s11,s11,-124
800013e4:	001da223          	sw	ra,4(s11)
800013e8:	002da423          	sw	sp,8(s11)
800013ec:	003da623          	sw	gp,12(s11)
800013f0:	004da823          	sw	tp,16(s11)
800013f4:	005daa23          	sw	t0,20(s11)
800013f8:	006dac23          	sw	t1,24(s11)
800013fc:	007dae23          	sw	t2,28(s11)
80001400:	028da023          	sw	s0,32(s11)
80001404:	029da223          	sw	s1,36(s11)
80001408:	02ada423          	sw	a0,40(s11)
8000140c:	02bda623          	sw	a1,44(s11)
80001410:	02cda823          	sw	a2,48(s11)
80001414:	02ddaa23          	sw	a3,52(s11)
80001418:	02edac23          	sw	a4,56(s11)
8000141c:	02fdae23          	sw	a5,60(s11)
80001420:	050da023          	sw	a6,64(s11)
80001424:	051da223          	sw	a7,68(s11)
80001428:	052da423          	sw	s2,72(s11)
8000142c:	053da623          	sw	s3,76(s11)
80001430:	054da823          	sw	s4,80(s11)
80001434:	055daa23          	sw	s5,84(s11)
80001438:	056dac23          	sw	s6,88(s11)
8000143c:	057dae23          	sw	s7,92(s11)
80001440:	078da023          	sw	s8,96(s11)
80001444:	079da223          	sw	s9,100(s11)
80001448:	07ada423          	sw	s10,104(s11)
8000144c:	07bda623          	sw	s11,108(s11)
80001450:	07cda823          	sw	t3,112(s11)
80001454:	07ddaa23          	sw	t4,116(s11)
80001458:	07edac23          	sw	t5,120(s11)
8000145c:	07fdae23          	sw	t6,124(s11)
80001460:	34202f73          	csrr	t5,mcause
80001464:	01ff5f13          	srli	t5,t5,0x1f
80001468:	000f0363          	beqz	t5,8000146e <mmode_intr_vector_6+0x96>
8000146c:	aff1                	j	80001c48 <mmode_intr_handler>
8000146e:	00000f97          	auipc	t6,0x0
80001472:	c24f8f93          	addi	t6,t6,-988 # 80001092 <test_done>
80001476:	000f8067          	jr	t6

8000147a <mmode_intr_vector_7>:
8000147a:	340d9df3          	csrrw	s11,mscratch,s11
8000147e:	00078db3          	add	s11,a5,zero
80001482:	f84d8d93          	addi	s11,s11,-124
80001486:	001da223          	sw	ra,4(s11)
8000148a:	002da423          	sw	sp,8(s11)
8000148e:	003da623          	sw	gp,12(s11)
80001492:	004da823          	sw	tp,16(s11)
80001496:	005daa23          	sw	t0,20(s11)
8000149a:	006dac23          	sw	t1,24(s11)
8000149e:	007dae23          	sw	t2,28(s11)
800014a2:	028da023          	sw	s0,32(s11)
800014a6:	029da223          	sw	s1,36(s11)
800014aa:	02ada423          	sw	a0,40(s11)
800014ae:	02bda623          	sw	a1,44(s11)
800014b2:	02cda823          	sw	a2,48(s11)
800014b6:	02ddaa23          	sw	a3,52(s11)
800014ba:	02edac23          	sw	a4,56(s11)
800014be:	02fdae23          	sw	a5,60(s11)
800014c2:	050da023          	sw	a6,64(s11)
800014c6:	051da223          	sw	a7,68(s11)
800014ca:	052da423          	sw	s2,72(s11)
800014ce:	053da623          	sw	s3,76(s11)
800014d2:	054da823          	sw	s4,80(s11)
800014d6:	055daa23          	sw	s5,84(s11)
800014da:	056dac23          	sw	s6,88(s11)
800014de:	057dae23          	sw	s7,92(s11)
800014e2:	078da023          	sw	s8,96(s11)
800014e6:	079da223          	sw	s9,100(s11)
800014ea:	07ada423          	sw	s10,104(s11)
800014ee:	07bda623          	sw	s11,108(s11)
800014f2:	07cda823          	sw	t3,112(s11)
800014f6:	07ddaa23          	sw	t4,116(s11)
800014fa:	07edac23          	sw	t5,120(s11)
800014fe:	07fdae23          	sw	t6,124(s11)
80001502:	34202f73          	csrr	t5,mcause
80001506:	01ff5f13          	srli	t5,t5,0x1f
8000150a:	000f0363          	beqz	t5,80001510 <mmode_intr_vector_7+0x96>
8000150e:	af2d                	j	80001c48 <mmode_intr_handler>
80001510:	00000f97          	auipc	t6,0x0
80001514:	b82f8f93          	addi	t6,t6,-1150 # 80001092 <test_done>
80001518:	000f8067          	jr	t6

8000151c <mmode_intr_vector_8>:
8000151c:	340d9df3          	csrrw	s11,mscratch,s11
80001520:	00078db3          	add	s11,a5,zero
80001524:	f84d8d93          	addi	s11,s11,-124
80001528:	001da223          	sw	ra,4(s11)
8000152c:	002da423          	sw	sp,8(s11)
80001530:	003da623          	sw	gp,12(s11)
80001534:	004da823          	sw	tp,16(s11)
80001538:	005daa23          	sw	t0,20(s11)
8000153c:	006dac23          	sw	t1,24(s11)
80001540:	007dae23          	sw	t2,28(s11)
80001544:	028da023          	sw	s0,32(s11)
80001548:	029da223          	sw	s1,36(s11)
8000154c:	02ada423          	sw	a0,40(s11)
80001550:	02bda623          	sw	a1,44(s11)
80001554:	02cda823          	sw	a2,48(s11)
80001558:	02ddaa23          	sw	a3,52(s11)
8000155c:	02edac23          	sw	a4,56(s11)
80001560:	02fdae23          	sw	a5,60(s11)
80001564:	050da023          	sw	a6,64(s11)
80001568:	051da223          	sw	a7,68(s11)
8000156c:	052da423          	sw	s2,72(s11)
80001570:	053da623          	sw	s3,76(s11)
80001574:	054da823          	sw	s4,80(s11)
80001578:	055daa23          	sw	s5,84(s11)
8000157c:	056dac23          	sw	s6,88(s11)
80001580:	057dae23          	sw	s7,92(s11)
80001584:	078da023          	sw	s8,96(s11)
80001588:	079da223          	sw	s9,100(s11)
8000158c:	07ada423          	sw	s10,104(s11)
80001590:	07bda623          	sw	s11,108(s11)
80001594:	07cda823          	sw	t3,112(s11)
80001598:	07ddaa23          	sw	t4,116(s11)
8000159c:	07edac23          	sw	t5,120(s11)
800015a0:	07fdae23          	sw	t6,124(s11)
800015a4:	34202f73          	csrr	t5,mcause
800015a8:	01ff5f13          	srli	t5,t5,0x1f
800015ac:	000f0363          	beqz	t5,800015b2 <mmode_intr_vector_8+0x96>
800015b0:	ad61                	j	80001c48 <mmode_intr_handler>
800015b2:	00000f97          	auipc	t6,0x0
800015b6:	ae0f8f93          	addi	t6,t6,-1312 # 80001092 <test_done>
800015ba:	000f8067          	jr	t6

800015be <mmode_intr_vector_9>:
800015be:	340d9df3          	csrrw	s11,mscratch,s11
800015c2:	00078db3          	add	s11,a5,zero
800015c6:	f84d8d93          	addi	s11,s11,-124
800015ca:	001da223          	sw	ra,4(s11)
800015ce:	002da423          	sw	sp,8(s11)
800015d2:	003da623          	sw	gp,12(s11)
800015d6:	004da823          	sw	tp,16(s11)
800015da:	005daa23          	sw	t0,20(s11)
800015de:	006dac23          	sw	t1,24(s11)
800015e2:	007dae23          	sw	t2,28(s11)
800015e6:	028da023          	sw	s0,32(s11)
800015ea:	029da223          	sw	s1,36(s11)
800015ee:	02ada423          	sw	a0,40(s11)
800015f2:	02bda623          	sw	a1,44(s11)
800015f6:	02cda823          	sw	a2,48(s11)
800015fa:	02ddaa23          	sw	a3,52(s11)
800015fe:	02edac23          	sw	a4,56(s11)
80001602:	02fdae23          	sw	a5,60(s11)
80001606:	050da023          	sw	a6,64(s11)
8000160a:	051da223          	sw	a7,68(s11)
8000160e:	052da423          	sw	s2,72(s11)
80001612:	053da623          	sw	s3,76(s11)
80001616:	054da823          	sw	s4,80(s11)
8000161a:	055daa23          	sw	s5,84(s11)
8000161e:	056dac23          	sw	s6,88(s11)
80001622:	057dae23          	sw	s7,92(s11)
80001626:	078da023          	sw	s8,96(s11)
8000162a:	079da223          	sw	s9,100(s11)
8000162e:	07ada423          	sw	s10,104(s11)
80001632:	07bda623          	sw	s11,108(s11)
80001636:	07cda823          	sw	t3,112(s11)
8000163a:	07ddaa23          	sw	t4,116(s11)
8000163e:	07edac23          	sw	t5,120(s11)
80001642:	07fdae23          	sw	t6,124(s11)
80001646:	34202f73          	csrr	t5,mcause
8000164a:	01ff5f13          	srli	t5,t5,0x1f
8000164e:	000f0363          	beqz	t5,80001654 <mmode_intr_vector_9+0x96>
80001652:	abdd                	j	80001c48 <mmode_intr_handler>
80001654:	00000f97          	auipc	t6,0x0
80001658:	a3ef8f93          	addi	t6,t6,-1474 # 80001092 <test_done>
8000165c:	000f8067          	jr	t6

80001660 <mmode_intr_vector_10>:
80001660:	340d9df3          	csrrw	s11,mscratch,s11
80001664:	00078db3          	add	s11,a5,zero
80001668:	f84d8d93          	addi	s11,s11,-124
8000166c:	001da223          	sw	ra,4(s11)
80001670:	002da423          	sw	sp,8(s11)
80001674:	003da623          	sw	gp,12(s11)
80001678:	004da823          	sw	tp,16(s11)
8000167c:	005daa23          	sw	t0,20(s11)
80001680:	006dac23          	sw	t1,24(s11)
80001684:	007dae23          	sw	t2,28(s11)
80001688:	028da023          	sw	s0,32(s11)
8000168c:	029da223          	sw	s1,36(s11)
80001690:	02ada423          	sw	a0,40(s11)
80001694:	02bda623          	sw	a1,44(s11)
80001698:	02cda823          	sw	a2,48(s11)
8000169c:	02ddaa23          	sw	a3,52(s11)
800016a0:	02edac23          	sw	a4,56(s11)
800016a4:	02fdae23          	sw	a5,60(s11)
800016a8:	050da023          	sw	a6,64(s11)
800016ac:	051da223          	sw	a7,68(s11)
800016b0:	052da423          	sw	s2,72(s11)
800016b4:	053da623          	sw	s3,76(s11)
800016b8:	054da823          	sw	s4,80(s11)
800016bc:	055daa23          	sw	s5,84(s11)
800016c0:	056dac23          	sw	s6,88(s11)
800016c4:	057dae23          	sw	s7,92(s11)
800016c8:	078da023          	sw	s8,96(s11)
800016cc:	079da223          	sw	s9,100(s11)
800016d0:	07ada423          	sw	s10,104(s11)
800016d4:	07bda623          	sw	s11,108(s11)
800016d8:	07cda823          	sw	t3,112(s11)
800016dc:	07ddaa23          	sw	t4,116(s11)
800016e0:	07edac23          	sw	t5,120(s11)
800016e4:	07fdae23          	sw	t6,124(s11)
800016e8:	34202f73          	csrr	t5,mcause
800016ec:	01ff5f13          	srli	t5,t5,0x1f
800016f0:	000f0363          	beqz	t5,800016f6 <mmode_intr_vector_10+0x96>
800016f4:	ab91                	j	80001c48 <mmode_intr_handler>
800016f6:	00000f97          	auipc	t6,0x0
800016fa:	99cf8f93          	addi	t6,t6,-1636 # 80001092 <test_done>
800016fe:	000f8067          	jr	t6

80001702 <mmode_intr_vector_11>:
80001702:	340d9df3          	csrrw	s11,mscratch,s11
80001706:	00078db3          	add	s11,a5,zero
8000170a:	f84d8d93          	addi	s11,s11,-124
8000170e:	001da223          	sw	ra,4(s11)
80001712:	002da423          	sw	sp,8(s11)
80001716:	003da623          	sw	gp,12(s11)
8000171a:	004da823          	sw	tp,16(s11)
8000171e:	005daa23          	sw	t0,20(s11)
80001722:	006dac23          	sw	t1,24(s11)
80001726:	007dae23          	sw	t2,28(s11)
8000172a:	028da023          	sw	s0,32(s11)
8000172e:	029da223          	sw	s1,36(s11)
80001732:	02ada423          	sw	a0,40(s11)
80001736:	02bda623          	sw	a1,44(s11)
8000173a:	02cda823          	sw	a2,48(s11)
8000173e:	02ddaa23          	sw	a3,52(s11)
80001742:	02edac23          	sw	a4,56(s11)
80001746:	02fdae23          	sw	a5,60(s11)
8000174a:	050da023          	sw	a6,64(s11)
8000174e:	051da223          	sw	a7,68(s11)
80001752:	052da423          	sw	s2,72(s11)
80001756:	053da623          	sw	s3,76(s11)
8000175a:	054da823          	sw	s4,80(s11)
8000175e:	055daa23          	sw	s5,84(s11)
80001762:	056dac23          	sw	s6,88(s11)
80001766:	057dae23          	sw	s7,92(s11)
8000176a:	078da023          	sw	s8,96(s11)
8000176e:	079da223          	sw	s9,100(s11)
80001772:	07ada423          	sw	s10,104(s11)
80001776:	07bda623          	sw	s11,108(s11)
8000177a:	07cda823          	sw	t3,112(s11)
8000177e:	07ddaa23          	sw	t4,116(s11)
80001782:	07edac23          	sw	t5,120(s11)
80001786:	07fdae23          	sw	t6,124(s11)
8000178a:	34202f73          	csrr	t5,mcause
8000178e:	01ff5f13          	srli	t5,t5,0x1f
80001792:	000f0363          	beqz	t5,80001798 <mmode_intr_vector_11+0x96>
80001796:	a94d                	j	80001c48 <mmode_intr_handler>
80001798:	00000f97          	auipc	t6,0x0
8000179c:	8faf8f93          	addi	t6,t6,-1798 # 80001092 <test_done>
800017a0:	000f8067          	jr	t6

800017a4 <mmode_intr_vector_12>:
800017a4:	340d9df3          	csrrw	s11,mscratch,s11
800017a8:	00078db3          	add	s11,a5,zero
800017ac:	f84d8d93          	addi	s11,s11,-124
800017b0:	001da223          	sw	ra,4(s11)
800017b4:	002da423          	sw	sp,8(s11)
800017b8:	003da623          	sw	gp,12(s11)
800017bc:	004da823          	sw	tp,16(s11)
800017c0:	005daa23          	sw	t0,20(s11)
800017c4:	006dac23          	sw	t1,24(s11)
800017c8:	007dae23          	sw	t2,28(s11)
800017cc:	028da023          	sw	s0,32(s11)
800017d0:	029da223          	sw	s1,36(s11)
800017d4:	02ada423          	sw	a0,40(s11)
800017d8:	02bda623          	sw	a1,44(s11)
800017dc:	02cda823          	sw	a2,48(s11)
800017e0:	02ddaa23          	sw	a3,52(s11)
800017e4:	02edac23          	sw	a4,56(s11)
800017e8:	02fdae23          	sw	a5,60(s11)
800017ec:	050da023          	sw	a6,64(s11)
800017f0:	051da223          	sw	a7,68(s11)
800017f4:	052da423          	sw	s2,72(s11)
800017f8:	053da623          	sw	s3,76(s11)
800017fc:	054da823          	sw	s4,80(s11)
80001800:	055daa23          	sw	s5,84(s11)
80001804:	056dac23          	sw	s6,88(s11)
80001808:	057dae23          	sw	s7,92(s11)
8000180c:	078da023          	sw	s8,96(s11)
80001810:	079da223          	sw	s9,100(s11)
80001814:	07ada423          	sw	s10,104(s11)
80001818:	07bda623          	sw	s11,108(s11)
8000181c:	07cda823          	sw	t3,112(s11)
80001820:	07ddaa23          	sw	t4,116(s11)
80001824:	07edac23          	sw	t5,120(s11)
80001828:	07fdae23          	sw	t6,124(s11)
8000182c:	34202f73          	csrr	t5,mcause
80001830:	01ff5f13          	srli	t5,t5,0x1f
80001834:	000f0363          	beqz	t5,8000183a <mmode_intr_vector_12+0x96>
80001838:	a901                	j	80001c48 <mmode_intr_handler>
8000183a:	00000f97          	auipc	t6,0x0
8000183e:	858f8f93          	addi	t6,t6,-1960 # 80001092 <test_done>
80001842:	000f8067          	jr	t6

80001846 <mmode_intr_vector_13>:
80001846:	340d9df3          	csrrw	s11,mscratch,s11
8000184a:	00078db3          	add	s11,a5,zero
8000184e:	f84d8d93          	addi	s11,s11,-124
80001852:	001da223          	sw	ra,4(s11)
80001856:	002da423          	sw	sp,8(s11)
8000185a:	003da623          	sw	gp,12(s11)
8000185e:	004da823          	sw	tp,16(s11)
80001862:	005daa23          	sw	t0,20(s11)
80001866:	006dac23          	sw	t1,24(s11)
8000186a:	007dae23          	sw	t2,28(s11)
8000186e:	028da023          	sw	s0,32(s11)
80001872:	029da223          	sw	s1,36(s11)
80001876:	02ada423          	sw	a0,40(s11)
8000187a:	02bda623          	sw	a1,44(s11)
8000187e:	02cda823          	sw	a2,48(s11)
80001882:	02ddaa23          	sw	a3,52(s11)
80001886:	02edac23          	sw	a4,56(s11)
8000188a:	02fdae23          	sw	a5,60(s11)
8000188e:	050da023          	sw	a6,64(s11)
80001892:	051da223          	sw	a7,68(s11)
80001896:	052da423          	sw	s2,72(s11)
8000189a:	053da623          	sw	s3,76(s11)
8000189e:	054da823          	sw	s4,80(s11)
800018a2:	055daa23          	sw	s5,84(s11)
800018a6:	056dac23          	sw	s6,88(s11)
800018aa:	057dae23          	sw	s7,92(s11)
800018ae:	078da023          	sw	s8,96(s11)
800018b2:	079da223          	sw	s9,100(s11)
800018b6:	07ada423          	sw	s10,104(s11)
800018ba:	07bda623          	sw	s11,108(s11)
800018be:	07cda823          	sw	t3,112(s11)
800018c2:	07ddaa23          	sw	t4,116(s11)
800018c6:	07edac23          	sw	t5,120(s11)
800018ca:	07fdae23          	sw	t6,124(s11)
800018ce:	34202f73          	csrr	t5,mcause
800018d2:	01ff5f13          	srli	t5,t5,0x1f
800018d6:	000f0363          	beqz	t5,800018dc <mmode_intr_vector_13+0x96>
800018da:	a6bd                	j	80001c48 <mmode_intr_handler>
800018dc:	ffffff97          	auipc	t6,0xfffff
800018e0:	7b6f8f93          	addi	t6,t6,1974 # 80001092 <test_done>
800018e4:	000f8067          	jr	t6

800018e8 <mmode_intr_vector_14>:
800018e8:	340d9df3          	csrrw	s11,mscratch,s11
800018ec:	00078db3          	add	s11,a5,zero
800018f0:	f84d8d93          	addi	s11,s11,-124
800018f4:	001da223          	sw	ra,4(s11)
800018f8:	002da423          	sw	sp,8(s11)
800018fc:	003da623          	sw	gp,12(s11)
80001900:	004da823          	sw	tp,16(s11)
80001904:	005daa23          	sw	t0,20(s11)
80001908:	006dac23          	sw	t1,24(s11)
8000190c:	007dae23          	sw	t2,28(s11)
80001910:	028da023          	sw	s0,32(s11)
80001914:	029da223          	sw	s1,36(s11)
80001918:	02ada423          	sw	a0,40(s11)
8000191c:	02bda623          	sw	a1,44(s11)
80001920:	02cda823          	sw	a2,48(s11)
80001924:	02ddaa23          	sw	a3,52(s11)
80001928:	02edac23          	sw	a4,56(s11)
8000192c:	02fdae23          	sw	a5,60(s11)
80001930:	050da023          	sw	a6,64(s11)
80001934:	051da223          	sw	a7,68(s11)
80001938:	052da423          	sw	s2,72(s11)
8000193c:	053da623          	sw	s3,76(s11)
80001940:	054da823          	sw	s4,80(s11)
80001944:	055daa23          	sw	s5,84(s11)
80001948:	056dac23          	sw	s6,88(s11)
8000194c:	057dae23          	sw	s7,92(s11)
80001950:	078da023          	sw	s8,96(s11)
80001954:	079da223          	sw	s9,100(s11)
80001958:	07ada423          	sw	s10,104(s11)
8000195c:	07bda623          	sw	s11,108(s11)
80001960:	07cda823          	sw	t3,112(s11)
80001964:	07ddaa23          	sw	t4,116(s11)
80001968:	07edac23          	sw	t5,120(s11)
8000196c:	07fdae23          	sw	t6,124(s11)
80001970:	34202f73          	csrr	t5,mcause
80001974:	01ff5f13          	srli	t5,t5,0x1f
80001978:	000f0363          	beqz	t5,8000197e <mmode_intr_vector_14+0x96>
8000197c:	a4f1                	j	80001c48 <mmode_intr_handler>
8000197e:	ffffff97          	auipc	t6,0xfffff
80001982:	714f8f93          	addi	t6,t6,1812 # 80001092 <test_done>
80001986:	000f8067          	jr	t6

8000198a <mmode_intr_vector_15>:
8000198a:	340d9df3          	csrrw	s11,mscratch,s11
8000198e:	00078db3          	add	s11,a5,zero
80001992:	f84d8d93          	addi	s11,s11,-124
80001996:	001da223          	sw	ra,4(s11)
8000199a:	002da423          	sw	sp,8(s11)
8000199e:	003da623          	sw	gp,12(s11)
800019a2:	004da823          	sw	tp,16(s11)
800019a6:	005daa23          	sw	t0,20(s11)
800019aa:	006dac23          	sw	t1,24(s11)
800019ae:	007dae23          	sw	t2,28(s11)
800019b2:	028da023          	sw	s0,32(s11)
800019b6:	029da223          	sw	s1,36(s11)
800019ba:	02ada423          	sw	a0,40(s11)
800019be:	02bda623          	sw	a1,44(s11)
800019c2:	02cda823          	sw	a2,48(s11)
800019c6:	02ddaa23          	sw	a3,52(s11)
800019ca:	02edac23          	sw	a4,56(s11)
800019ce:	02fdae23          	sw	a5,60(s11)
800019d2:	050da023          	sw	a6,64(s11)
800019d6:	051da223          	sw	a7,68(s11)
800019da:	052da423          	sw	s2,72(s11)
800019de:	053da623          	sw	s3,76(s11)
800019e2:	054da823          	sw	s4,80(s11)
800019e6:	055daa23          	sw	s5,84(s11)
800019ea:	056dac23          	sw	s6,88(s11)
800019ee:	057dae23          	sw	s7,92(s11)
800019f2:	078da023          	sw	s8,96(s11)
800019f6:	079da223          	sw	s9,100(s11)
800019fa:	07ada423          	sw	s10,104(s11)
800019fe:	07bda623          	sw	s11,108(s11)
80001a02:	07cda823          	sw	t3,112(s11)
80001a06:	07ddaa23          	sw	t4,116(s11)
80001a0a:	07edac23          	sw	t5,120(s11)
80001a0e:	07fdae23          	sw	t6,124(s11)
80001a12:	34202f73          	csrr	t5,mcause
80001a16:	01ff5f13          	srli	t5,t5,0x1f
80001a1a:	000f0363          	beqz	t5,80001a20 <mmode_intr_vector_15+0x96>
80001a1e:	a42d                	j	80001c48 <mmode_intr_handler>
80001a20:	ffffff97          	auipc	t6,0xfffff
80001a24:	672f8f93          	addi	t6,t6,1650 # 80001092 <test_done>
80001a28:	000f8067          	jr	t6
80001a2c:	00000013          	nop

80001a30 <mtvec_handler>:
80001a30:	0400006f          	j	80001a70 <mmode_exception_handler>
80001a34:	e70ff06f          	j	800010a4 <mmode_intr_vector_1>
80001a38:	f10ff06f          	j	80001148 <mmode_intr_vector_2>
80001a3c:	fb0ff06f          	j	800011ec <mmode_intr_vector_3>
80001a40:	851ff06f          	j	80001290 <mmode_intr_vector_4>
80001a44:	8f1ff06f          	j	80001334 <mmode_intr_vector_5>
80001a48:	991ff06f          	j	800013d8 <mmode_intr_vector_6>
80001a4c:	a2fff06f          	j	8000147a <mmode_intr_vector_7>
80001a50:	acdff06f          	j	8000151c <mmode_intr_vector_8>
80001a54:	b6bff06f          	j	800015be <mmode_intr_vector_9>
80001a58:	c09ff06f          	j	80001660 <mmode_intr_vector_10>
80001a5c:	ca7ff06f          	j	80001702 <mmode_intr_vector_11>
80001a60:	d45ff06f          	j	800017a4 <mmode_intr_vector_12>
80001a64:	de3ff06f          	j	80001846 <mmode_intr_vector_13>
80001a68:	e81ff06f          	j	800018e8 <mmode_intr_vector_14>
80001a6c:	f1fff06f          	j	8000198a <mmode_intr_vector_15>

80001a70 <mmode_exception_handler>:
80001a70:	340d9df3          	csrrw	s11,mscratch,s11
80001a74:	00078db3          	add	s11,a5,zero
80001a78:	f84d8d93          	addi	s11,s11,-124
80001a7c:	001da223          	sw	ra,4(s11)
80001a80:	002da423          	sw	sp,8(s11)
80001a84:	003da623          	sw	gp,12(s11)
80001a88:	004da823          	sw	tp,16(s11)
80001a8c:	005daa23          	sw	t0,20(s11)
80001a90:	006dac23          	sw	t1,24(s11)
80001a94:	007dae23          	sw	t2,28(s11)
80001a98:	028da023          	sw	s0,32(s11)
80001a9c:	029da223          	sw	s1,36(s11)
80001aa0:	02ada423          	sw	a0,40(s11)
80001aa4:	02bda623          	sw	a1,44(s11)
80001aa8:	02cda823          	sw	a2,48(s11)
80001aac:	02ddaa23          	sw	a3,52(s11)
80001ab0:	02edac23          	sw	a4,56(s11)
80001ab4:	02fdae23          	sw	a5,60(s11)
80001ab8:	050da023          	sw	a6,64(s11)
80001abc:	051da223          	sw	a7,68(s11)
80001ac0:	052da423          	sw	s2,72(s11)
80001ac4:	053da623          	sw	s3,76(s11)
80001ac8:	054da823          	sw	s4,80(s11)
80001acc:	055daa23          	sw	s5,84(s11)
80001ad0:	056dac23          	sw	s6,88(s11)
80001ad4:	057dae23          	sw	s7,92(s11)
80001ad8:	078da023          	sw	s8,96(s11)
80001adc:	079da223          	sw	s9,100(s11)
80001ae0:	07ada423          	sw	s10,104(s11)
80001ae4:	07bda623          	sw	s11,108(s11)
80001ae8:	07cda823          	sw	t3,112(s11)
80001aec:	07ddaa23          	sw	t4,116(s11)
80001af0:	07edac23          	sw	t5,120(s11)
80001af4:	07fdae23          	sw	t6,124(s11)
80001af8:	34102f73          	csrr	t5,mepc
80001afc:	34202f73          	csrr	t5,mcause
80001b00:	4bad                	li	s7,11
80001b02:	017f0d63          	beq	t5,s7,80001b1c <ecall_handler>
80001b06:	4b89                	li	s7,2
80001b08:	0b7f0463          	beq	t5,s7,80001bb0 <illegal_instr_handler>
80001b0c:	34302bf3          	csrr	s7,mtval
80001b10:	ffffff97          	auipc	t6,0xfffff
80001b14:	582f8f93          	addi	t6,t6,1410 # 80001092 <test_done>
80001b18:	000f80e7          	jalr	t6

80001b1c <ecall_handler>:
80001b1c:	ffffef17          	auipc	t5,0xffffe
80001b20:	4e4f0f13          	addi	t5,t5,1252 # 80000000 <_start>
80001b24:	000f2023          	sw	zero,0(t5)
80001b28:	001f2223          	sw	ra,4(t5)
80001b2c:	002f2423          	sw	sp,8(t5)
80001b30:	003f2623          	sw	gp,12(t5)
80001b34:	004f2823          	sw	tp,16(t5)
80001b38:	005f2a23          	sw	t0,20(t5)
80001b3c:	006f2c23          	sw	t1,24(t5)
80001b40:	007f2e23          	sw	t2,28(t5)
80001b44:	028f2023          	sw	s0,32(t5)
80001b48:	029f2223          	sw	s1,36(t5)
80001b4c:	02af2423          	sw	a0,40(t5)
80001b50:	02bf2623          	sw	a1,44(t5)
80001b54:	02cf2823          	sw	a2,48(t5)
80001b58:	02df2a23          	sw	a3,52(t5)
80001b5c:	02ef2c23          	sw	a4,56(t5)
80001b60:	02ff2e23          	sw	a5,60(t5)
80001b64:	050f2023          	sw	a6,64(t5)
80001b68:	051f2223          	sw	a7,68(t5)
80001b6c:	052f2423          	sw	s2,72(t5)
80001b70:	053f2623          	sw	s3,76(t5)
80001b74:	054f2823          	sw	s4,80(t5)
80001b78:	055f2a23          	sw	s5,84(t5)
80001b7c:	056f2c23          	sw	s6,88(t5)
80001b80:	057f2e23          	sw	s7,92(t5)
80001b84:	078f2023          	sw	s8,96(t5)
80001b88:	079f2223          	sw	s9,100(t5)
80001b8c:	07af2423          	sw	s10,104(t5)
80001b90:	07bf2623          	sw	s11,108(t5)
80001b94:	07cf2823          	sw	t3,112(t5)
80001b98:	07df2a23          	sw	t4,116(t5)
80001b9c:	07ef2c23          	sw	t5,120(t5)
80001ba0:	07ff2e23          	sw	t6,124(t5)
80001ba4:	ffffff97          	auipc	t6,0xfffff
80001ba8:	4f4f8f93          	addi	t6,t6,1268 # 80001098 <write_tohost>
80001bac:	000f8067          	jr	t6

80001bb0 <illegal_instr_handler>:
80001bb0:	34102f73          	csrr	t5,mepc
80001bb4:	0f11                	addi	t5,t5,4
80001bb6:	341f1073          	csrw	mepc,t5
80001bba:	004da083          	lw	ra,4(s11)
80001bbe:	008da103          	lw	sp,8(s11)
80001bc2:	00cda183          	lw	gp,12(s11)
80001bc6:	010da203          	lw	tp,16(s11)
80001bca:	014da283          	lw	t0,20(s11)
80001bce:	018da303          	lw	t1,24(s11)
80001bd2:	01cda383          	lw	t2,28(s11)
80001bd6:	020da403          	lw	s0,32(s11)
80001bda:	024da483          	lw	s1,36(s11)
80001bde:	028da503          	lw	a0,40(s11)
80001be2:	02cda583          	lw	a1,44(s11)
80001be6:	030da603          	lw	a2,48(s11)
80001bea:	034da683          	lw	a3,52(s11)
80001bee:	038da703          	lw	a4,56(s11)
80001bf2:	03cda783          	lw	a5,60(s11)
80001bf6:	040da803          	lw	a6,64(s11)
80001bfa:	044da883          	lw	a7,68(s11)
80001bfe:	048da903          	lw	s2,72(s11)
80001c02:	04cda983          	lw	s3,76(s11)
80001c06:	050daa03          	lw	s4,80(s11)
80001c0a:	054daa83          	lw	s5,84(s11)
80001c0e:	058dab03          	lw	s6,88(s11)
80001c12:	05cdab83          	lw	s7,92(s11)
80001c16:	060dac03          	lw	s8,96(s11)
80001c1a:	064dac83          	lw	s9,100(s11)
80001c1e:	068dad03          	lw	s10,104(s11)
80001c22:	06cdad83          	lw	s11,108(s11)
80001c26:	070dae03          	lw	t3,112(s11)
80001c2a:	074dae83          	lw	t4,116(s11)
80001c2e:	078daf03          	lw	t5,120(s11)
80001c32:	07cdaf83          	lw	t6,124(s11)
80001c36:	07cd8d93          	addi	s11,s11,124
80001c3a:	000d87b3          	add	a5,s11,zero
80001c3e:	340d9df3          	csrrw	s11,mscratch,s11
80001c42:	30200073          	mret

80001c46 <pt_fault_handler>:
80001c46:	0001                	nop

80001c48 <mmode_intr_handler>:
80001c48:	30002f73          	csrr	t5,mstatus
80001c4c:	30402f73          	csrr	t5,mie
80001c50:	34402f73          	csrr	t5,mip
80001c54:	344f3f73          	csrrc	t5,mip,t5
80001c58:	004da083          	lw	ra,4(s11)
80001c5c:	008da103          	lw	sp,8(s11)
80001c60:	00cda183          	lw	gp,12(s11)
80001c64:	010da203          	lw	tp,16(s11)
80001c68:	014da283          	lw	t0,20(s11)
80001c6c:	018da303          	lw	t1,24(s11)
80001c70:	01cda383          	lw	t2,28(s11)
80001c74:	020da403          	lw	s0,32(s11)
80001c78:	024da483          	lw	s1,36(s11)
80001c7c:	028da503          	lw	a0,40(s11)
80001c80:	02cda583          	lw	a1,44(s11)
80001c84:	030da603          	lw	a2,48(s11)
80001c88:	034da683          	lw	a3,52(s11)
80001c8c:	038da703          	lw	a4,56(s11)
80001c90:	03cda783          	lw	a5,60(s11)
80001c94:	040da803          	lw	a6,64(s11)
80001c98:	044da883          	lw	a7,68(s11)
80001c9c:	048da903          	lw	s2,72(s11)
80001ca0:	04cda983          	lw	s3,76(s11)
80001ca4:	050daa03          	lw	s4,80(s11)
80001ca8:	054daa83          	lw	s5,84(s11)
80001cac:	058dab03          	lw	s6,88(s11)
80001cb0:	05cdab83          	lw	s7,92(s11)
80001cb4:	060dac03          	lw	s8,96(s11)
80001cb8:	064dac83          	lw	s9,100(s11)
80001cbc:	068dad03          	lw	s10,104(s11)
80001cc0:	06cdad83          	lw	s11,108(s11)
80001cc4:	070dae03          	lw	t3,112(s11)
80001cc8:	074dae83          	lw	t4,116(s11)
80001ccc:	078daf03          	lw	t5,120(s11)
80001cd0:	07cdaf83          	lw	t6,124(s11)
80001cd4:	07cd8d93          	addi	s11,s11,124
80001cd8:	000d87b3          	add	a5,s11,zero
80001cdc:	340d9df3          	csrrw	s11,mscratch,s11
80001ce0:	30200073          	mret

80001ce4 <kernel_instr_end>:
80001ce4:	0001                	nop
80001ce6:	0001                	nop

80001ce8 <kernel_data_start>:
	...
