
riscv_arithmetic_basic_test_0.exe:     file format elf32-littleriscv


Disassembly of section .text:

80000000 <_start>:
80000000:	f14022f3          	csrr	t0,mhartid
80000004:	4301                	li	t1,0
80000006:	00628263          	beq	t0,t1,8000000a <_start+0xa>
8000000a:	00000217          	auipc	tp,0x0
8000000e:	00c20213          	addi	tp,tp,12 # 80000016 <h0_start>
80000012:	00020067          	jr	tp # 0 <_start-0x80000000>

80000016 <h0_start>:
80000016:	40001737          	lui	a4,0x40001
8000001a:	10470713          	addi	a4,a4,260 # 40001104 <_start-0x3fffeefc>
8000001e:	30171073          	csrw	misa,a4

80000022 <kernel_sp>:
80000022:	7004af97          	auipc	t6,0x7004a
80000026:	c62f8f93          	addi	t6,t6,-926 # f0049c84 <kernel_stack_end>

8000002a <trap_vec_init>:
8000002a:	00001717          	auipc	a4,0x1
8000002e:	c0670713          	addi	a4,a4,-1018 # 80000c30 <mtvec_handler>
80000032:	00176713          	ori	a4,a4,1
80000036:	30571073          	csrw	mtvec,a4

8000003a <mepc_setup>:
8000003a:	00000717          	auipc	a4,0x0
8000003e:	02070713          	addi	a4,a4,32 # 8000005a <init>
80000042:	34171073          	csrw	mepc,a4

80000046 <init_machine_mode>:
80000046:	6709                	lui	a4,0x2
80000048:	c0070713          	addi	a4,a4,-1024 # 1c00 <_start-0x7fffe400>
8000004c:	30071073          	csrw	mstatus,a4
80000050:	4701                	li	a4,0
80000052:	30471073          	csrw	mie,a4
80000056:	30200073          	mret

8000005a <init>:
8000005a:	41d7b037          	lui	zero,0x41d7b
8000005e:	1ec00013          	li	zero,492
80000062:	f59b90b7          	lui	ra,0xf59b9
80000066:	aa208093          	addi	ra,ra,-1374 # f59b8aa2 <STACK+0x596de12>
8000006a:	f9784137          	lui	sp,0xf9784
8000006e:	84c10113          	addi	sp,sp,-1972 # f978384c <STACK+0x9738bbc>
80000072:	800001b7          	lui	gp,0x80000
80000076:	9c265237          	lui	tp,0x9c265
8000007a:	3d320213          	addi	tp,tp,979 # 9c2653d3 <STACK+0xac21a743>
8000007e:	f3f3c2b7          	lui	t0,0xf3f3c
80000082:	a4b28293          	addi	t0,t0,-1461 # f3f3ba4b <STACK+0x3ef0dbb>
80000086:	f7687337          	lui	t1,0xf7687
8000008a:	3ec30313          	addi	t1,t1,1004 # f76873ec <STACK+0x763c75c>
8000008e:	0459e3b7          	lui	t2,0x459e
80000092:	3ad38393          	addi	t2,t2,941 # 459e3ad <_start-0x7ba61c53>
80000096:	4401                	li	s0,0
80000098:	b65e24b7          	lui	s1,0xb65e2
8000009c:	b4948493          	addi	s1,s1,-1207 # b65e1b49 <STACK+0xc6596eb9>
800000a0:	f3ede537          	lui	a0,0xf3ede
800000a4:	ac150513          	addi	a0,a0,-1343 # f3eddac1 <STACK+0x3e92e31>
800000a8:	4581                	li	a1,0
800000aa:	4601                	li	a2,0
800000ac:	4681                	li	a3,0
800000ae:	4701                	li	a4,0
800000b0:	f8b137b7          	lui	a5,0xf8b13
800000b4:	a7778793          	addi	a5,a5,-1417 # f8b12a77 <STACK+0x8ac7de7>
800000b8:	80000837          	lui	a6,0x80000
800000bc:	f3fc78b7          	lui	a7,0xf3fc7
800000c0:	17188893          	addi	a7,a7,369 # f3fc7171 <STACK+0x3f7c4e1>
800000c4:	de4de937          	lui	s2,0xde4de
800000c8:	09790913          	addi	s2,s2,151 # de4de097 <STACK+0xee493407>
800000cc:	f31c09b7          	lui	s3,0xf31c0
800000d0:	29998993          	addi	s3,s3,665 # f31c0299 <STACK+0x3175609>
800000d4:	daba5a37          	lui	s4,0xdaba5
800000d8:	c44a0a13          	addi	s4,s4,-956 # daba4c44 <STACK+0xeab59fb4>
800000dc:	4ab9                	li	s5,14
800000de:	4b01                	li	s6,0
800000e0:	6409bbb7          	lui	s7,0x6409b
800000e4:	47ab8b93          	addi	s7,s7,1146 # 6409b47a <_start-0x1bf64b86>
800000e8:	e07b0c37          	lui	s8,0xe07b0
800000ec:	2dac0c13          	addi	s8,s8,730 # e07b02da <STACK+0xf076564a>
800000f0:	4c9d                	li	s9,7
800000f2:	f4ac2d37          	lui	s10,0xf4ac2
800000f6:	e7fd0d13          	addi	s10,s10,-385 # f4ac1e7f <STACK+0x4a771ef>
800000fa:	80000db7          	lui	s11,0x80000
800000fe:	4e01                	li	t3,0
80000100:	80000eb7          	lui	t4,0x80000
80000104:	70045f17          	auipc	t5,0x70045
80000108:	d60f0f13          	addi	t5,t5,-672 # f0044e64 <user_stack_end>

8000010c <main>:
8000010c:	00779933          	sll	s2,a5,t2
80000110:	40115d93          	srai	s11,sp,0x1
80000114:	010dc7b3          	xor	a5,s11,a6
80000118:	8ad1                	andi	a3,a3,20
8000011a:	00a85c33          	srl	s8,a6,a0
8000011e:	d6a8ee93          	ori	t4,a7,-662
80000122:	017a4a33          	xor	s4,s4,s7
80000126:	02c81c33          	mulh	s8,a6,a2
8000012a:	754b8c93          	addi	s9,s7,1876
8000012e:	01509113          	slli	sp,ra,0x15
80000132:	00162533          	slt	a0,a2,ra
80000136:	717d                	addi	sp,sp,-16
80000138:	8ce9                	and	s1,s1,a0
8000013a:	4e81                	li	t4,0
8000013c:	4e05                	li	t3,1
8000013e:	2bdf12b7          	lui	t0,0x2bdf1
80000142:	49728293          	addi	t0,t0,1175 # 2bdf1497 <_start-0x5420eb69>
80000146:	4d01                	li	s10,0
80000148:	2b1dfc37          	lui	s8,0x2b1df
8000014c:	033c0c13          	addi	s8,s8,51 # 2b1df033 <_start-0x54e20fcd>
80000150:	4605                	li	a2,1
80000152:	4a01                	li	s4,0
80000154:	3231d6b7          	lui	a3,0x3231d
80000158:	47f68693          	addi	a3,a3,1151 # 3231d47f <_start-0x4dce2b81>
8000015c:	4a85                	li	s5,1
8000015e:	4c81                	li	s9,0
80000160:	1efd                	addi	t4,t4,-1 # 7fffffff <STACK+0x8ffb536f>
80000162:	5ca2d7b7          	lui	a5,0x5ca2d
80000166:	02e3d9b3          	divu	s3,t2,a4
8000016a:	412b8033          	sub	zero,s7,s2
8000016e:	00e5                	addi	ra,ra,25
80000170:	02a266b3          	rem	a3,tp,a0
80000174:	8d52                	mv	s10,s4
80000176:	413581b3          	sub	gp,a1,s3
8000017a:	030ce833          	rem	a6,s9,a6
8000017e:	0001                	nop
80000180:	8e8d                	sub	a3,a3,a1
80000182:	03a766b3          	rem	a3,a4,s10
80000186:	034148b3          	div	a7,sp,s4
8000018a:	037fcbb3          	div	s7,t6,s7
8000018e:	0001                	nop
80000190:	00e5                	addi	ra,ra,25
80000192:	0001                	nop
80000194:	030b3333          	mulhu	t1,s6,a6
80000198:	8e05                	sub	a2,a2,s1
8000019a:	17fd                	addi	a5,a5,-1 # 5ca2cfff <_start-0x235d3001>
8000019c:	90ea                	add	ra,ra,s10
8000019e:	8c8d                	sub	s1,s1,a1
800001a0:	33781297          	auipc	t0,0x33781
800001a4:	41f90eb3          	sub	t4,s2,t6
800001a8:	021bed33          	rem	s10,s7,ra
800001ac:	02f016b3          	mulh	a3,zero,a5
800001b0:	03092a33          	mulhsu	s4,s2,a6
800001b4:	03eb05b3          	mul	a1,s6,t5
800001b8:	0001                	nop
800001ba:	03bd81b3          	mul	gp,s11,s11
800001be:	6569                	lui	a0,0x1a
800001c0:	8125                	srli	a0,a0,0x9
800001c2:	03639e33          	mulh	t3,t2,s6
800001c6:	8c41                	or	s0,s0,s0
800001c8:	5b538793          	addi	a5,t2,1461
800001cc:	0001                	nop
800001ce:	0306                	slli	t1,t1,0x1
800001d0:	66e1                	lui	a3,0x18
800001d2:	8a81                	andi	a3,a3,0
800001d4:	00685cb3          	srl	s9,a6,t1
800001d8:	403c5ab3          	sra	s5,s8,gp
800001dc:	8ead                	xor	a3,a3,a1
800001de:	03f3d033          	divu	zero,t2,t6
800001e2:	4037dd13          	srai	s10,a5,0x3
800001e6:	8dcd                	or	a1,a1,a1
800001e8:	0a08                	addi	a0,sp,272
800001ea:	0001                	nop
800001ec:	9a7d                	andi	a2,a2,-1
800001ee:	e00f6613          	ori	a2,t5,-512
800001f2:	011bdeb3          	srl	t4,s7,a7
800001f6:	717d                	addi	sp,sp,-16
800001f8:	7de4ed93          	ori	s11,s1,2014
800001fc:	001b8033          	add	zero,s7,ra
80000200:	8a79                	andi	a2,a2,30
80000202:	00a49713          	slli	a4,s1,0xa
80000206:	02f41c33          	mulh	s8,s0,a5
8000020a:	8d51                	or	a0,a0,a2
8000020c:	8161                	srli	a0,a0,0x18
8000020e:	8596                	mv	a1,t0
80000210:	e9a67d93          	andi	s11,a2,-358
80000214:	1ecd5037          	lui	zero,0x1ecd5
80000218:	0001                	nop
8000021a:	8d06                	mv	s10,ra
8000021c:	03469db3          	mulh	s11,a3,s4
80000220:	09da                	slli	s3,s3,0x16
80000222:	008d4db3          	xor	s11,s10,s0
80000226:	8a81                	andi	a3,a3,0
80000228:	0001                	nop
8000022a:	0001                	nop
8000022c:	00e19033          	sll	zero,gp,a4
80000230:	4115d013          	srai	zero,a1,0x11
80000234:	0171deb3          	srl	t4,gp,s7
80000238:	8d2d                	xor	a0,a0,a1
8000023a:	41670bb3          	sub	s7,a4,s6
8000023e:	8959                	andi	a0,a0,22
80000240:	01b4d333          	srl	t1,s1,s11
80000244:	40025133          	sra	sp,tp,zero
80000248:	394d4e13          	xori	t3,s10,916
8000024c:	7e300393          	li	t2,2019
80000250:	02bb5733          	divu	a4,s6,a1
80000254:	1cd7a413          	slti	s0,a5,461
80000258:	99fd                	andi	a1,a1,-1
8000025a:	8465a293          	slti	t0,a1,-1978
8000025e:	003023b3          	sgtz	t2,gp
80000262:	02a56d33          	rem	s10,a0,a0
80000266:	3e526993          	ori	s3,tp,997
8000026a:	8ecd                	or	a3,a3,a1
8000026c:	177d                	addi	a4,a4,-1
8000026e:	01811333          	sll	t1,sp,s8
80000272:	800d                	srli	s0,s0,0x3
80000274:	01aab7b3          	sltu	a5,s5,s10
80000278:	8c86                	mv	s9,ra
8000027a:	6cf5                	lui	s9,0x1d
8000027c:	8551                	srai	a0,a0,0x14
8000027e:	02fc6033          	rem	zero,s8,a5
80000282:	e7a2bcb7          	lui	s9,0xe7a2b
80000286:	815d                	srli	a0,a0,0x17
80000288:	8975                	andi	a0,a0,29
8000028a:	002392b3          	sll	t0,t2,sp
8000028e:	02e71633          	mulh	a2,a4,a4
80000292:	0001                	nop
80000294:	01fedbb3          	srl	s7,t4,t6
80000298:	0001                	nop
8000029a:	1d88                	addi	a0,sp,752
8000029c:	20b1c393          	xori	t2,gp,523
800002a0:	000b5033          	srl	zero,s6,zero
800002a4:	0001                	nop
800002a6:	037d59b3          	divu	s3,s10,s7
800002aa:	4109d0b3          	sra	ra,s3,a6
800002ae:	8ae35e97          	auipc	t4,0x8ae35
800002b2:	9a22                	add	s4,s4,s0
800002b4:	02ad28b3          	mulhsu	a7,s10,a0
800002b8:	00000217          	auipc	tp,0x0
800002bc:	00c20213          	addi	tp,tp,12 # 800002c4 <test_done>
800002c0:	00020067          	jr	tp # 0 <_start-0x80000000>

800002c4 <test_done>:
800002c4:	4185                	li	gp,1
800002c6:	00000073          	ecall

800002ca <write_tohost>:
800002ca:	70040f17          	auipc	t5,0x70040
800002ce:	d23f2b23          	sw	gp,-714(t5) # f0040000 <tohost>

800002d2 <_exit>:
800002d2:	bfe5                	j	800002ca <write_tohost>

800002d4 <instr_end>:
800002d4:	0001                	nop

800002d6 <mmode_intr_vector_1>:
800002d6:	340f1f73          	csrrw	t5,mscratch,t5
800002da:	000f8f33          	add	t5,t6,zero
800002de:	f84f0f13          	addi	t5,t5,-124
800002e2:	001f2223          	sw	ra,4(t5)
800002e6:	002f2423          	sw	sp,8(t5)
800002ea:	003f2623          	sw	gp,12(t5)
800002ee:	004f2823          	sw	tp,16(t5)
800002f2:	005f2a23          	sw	t0,20(t5)
800002f6:	006f2c23          	sw	t1,24(t5)
800002fa:	007f2e23          	sw	t2,28(t5)
800002fe:	028f2023          	sw	s0,32(t5)
80000302:	029f2223          	sw	s1,36(t5)
80000306:	02af2423          	sw	a0,40(t5)
8000030a:	02bf2623          	sw	a1,44(t5)
8000030e:	02cf2823          	sw	a2,48(t5)
80000312:	02df2a23          	sw	a3,52(t5)
80000316:	02ef2c23          	sw	a4,56(t5)
8000031a:	02ff2e23          	sw	a5,60(t5)
8000031e:	050f2023          	sw	a6,64(t5)
80000322:	051f2223          	sw	a7,68(t5)
80000326:	052f2423          	sw	s2,72(t5)
8000032a:	053f2623          	sw	s3,76(t5)
8000032e:	054f2823          	sw	s4,80(t5)
80000332:	055f2a23          	sw	s5,84(t5)
80000336:	056f2c23          	sw	s6,88(t5)
8000033a:	057f2e23          	sw	s7,92(t5)
8000033e:	078f2023          	sw	s8,96(t5)
80000342:	079f2223          	sw	s9,100(t5)
80000346:	07af2423          	sw	s10,104(t5)
8000034a:	07bf2623          	sw	s11,108(t5)
8000034e:	07cf2823          	sw	t3,112(t5)
80000352:	07df2a23          	sw	t4,116(t5)
80000356:	07ef2c23          	sw	t5,120(t5)
8000035a:	07ff2e23          	sw	t6,124(t5)
8000035e:	34202773          	csrr	a4,mcause
80000362:	837d                	srli	a4,a4,0x1f
80000364:	c319                	beqz	a4,8000036a <mmode_intr_vector_1+0x94>
80000366:	2d30006f          	j	80000e38 <mmode_intr_handler>
8000036a:	00000217          	auipc	tp,0x0
8000036e:	f5a20213          	addi	tp,tp,-166 # 800002c4 <test_done>
80000372:	00020067          	jr	tp # 0 <_start-0x80000000>

80000376 <mmode_intr_vector_2>:
80000376:	340f1f73          	csrrw	t5,mscratch,t5
8000037a:	000f8f33          	add	t5,t6,zero
8000037e:	f84f0f13          	addi	t5,t5,-124
80000382:	001f2223          	sw	ra,4(t5)
80000386:	002f2423          	sw	sp,8(t5)
8000038a:	003f2623          	sw	gp,12(t5)
8000038e:	004f2823          	sw	tp,16(t5)
80000392:	005f2a23          	sw	t0,20(t5)
80000396:	006f2c23          	sw	t1,24(t5)
8000039a:	007f2e23          	sw	t2,28(t5)
8000039e:	028f2023          	sw	s0,32(t5)
800003a2:	029f2223          	sw	s1,36(t5)
800003a6:	02af2423          	sw	a0,40(t5)
800003aa:	02bf2623          	sw	a1,44(t5)
800003ae:	02cf2823          	sw	a2,48(t5)
800003b2:	02df2a23          	sw	a3,52(t5)
800003b6:	02ef2c23          	sw	a4,56(t5)
800003ba:	02ff2e23          	sw	a5,60(t5)
800003be:	050f2023          	sw	a6,64(t5)
800003c2:	051f2223          	sw	a7,68(t5)
800003c6:	052f2423          	sw	s2,72(t5)
800003ca:	053f2623          	sw	s3,76(t5)
800003ce:	054f2823          	sw	s4,80(t5)
800003d2:	055f2a23          	sw	s5,84(t5)
800003d6:	056f2c23          	sw	s6,88(t5)
800003da:	057f2e23          	sw	s7,92(t5)
800003de:	078f2023          	sw	s8,96(t5)
800003e2:	079f2223          	sw	s9,100(t5)
800003e6:	07af2423          	sw	s10,104(t5)
800003ea:	07bf2623          	sw	s11,108(t5)
800003ee:	07cf2823          	sw	t3,112(t5)
800003f2:	07df2a23          	sw	t4,116(t5)
800003f6:	07ef2c23          	sw	t5,120(t5)
800003fa:	07ff2e23          	sw	t6,124(t5)
800003fe:	34202773          	csrr	a4,mcause
80000402:	837d                	srli	a4,a4,0x1f
80000404:	c319                	beqz	a4,8000040a <mmode_intr_vector_2+0x94>
80000406:	2330006f          	j	80000e38 <mmode_intr_handler>
8000040a:	00000217          	auipc	tp,0x0
8000040e:	eba20213          	addi	tp,tp,-326 # 800002c4 <test_done>
80000412:	00020067          	jr	tp # 0 <_start-0x80000000>

80000416 <mmode_intr_vector_3>:
80000416:	340f1f73          	csrrw	t5,mscratch,t5
8000041a:	000f8f33          	add	t5,t6,zero
8000041e:	f84f0f13          	addi	t5,t5,-124
80000422:	001f2223          	sw	ra,4(t5)
80000426:	002f2423          	sw	sp,8(t5)
8000042a:	003f2623          	sw	gp,12(t5)
8000042e:	004f2823          	sw	tp,16(t5)
80000432:	005f2a23          	sw	t0,20(t5)
80000436:	006f2c23          	sw	t1,24(t5)
8000043a:	007f2e23          	sw	t2,28(t5)
8000043e:	028f2023          	sw	s0,32(t5)
80000442:	029f2223          	sw	s1,36(t5)
80000446:	02af2423          	sw	a0,40(t5)
8000044a:	02bf2623          	sw	a1,44(t5)
8000044e:	02cf2823          	sw	a2,48(t5)
80000452:	02df2a23          	sw	a3,52(t5)
80000456:	02ef2c23          	sw	a4,56(t5)
8000045a:	02ff2e23          	sw	a5,60(t5)
8000045e:	050f2023          	sw	a6,64(t5)
80000462:	051f2223          	sw	a7,68(t5)
80000466:	052f2423          	sw	s2,72(t5)
8000046a:	053f2623          	sw	s3,76(t5)
8000046e:	054f2823          	sw	s4,80(t5)
80000472:	055f2a23          	sw	s5,84(t5)
80000476:	056f2c23          	sw	s6,88(t5)
8000047a:	057f2e23          	sw	s7,92(t5)
8000047e:	078f2023          	sw	s8,96(t5)
80000482:	079f2223          	sw	s9,100(t5)
80000486:	07af2423          	sw	s10,104(t5)
8000048a:	07bf2623          	sw	s11,108(t5)
8000048e:	07cf2823          	sw	t3,112(t5)
80000492:	07df2a23          	sw	t4,116(t5)
80000496:	07ef2c23          	sw	t5,120(t5)
8000049a:	07ff2e23          	sw	t6,124(t5)
8000049e:	34202773          	csrr	a4,mcause
800004a2:	837d                	srli	a4,a4,0x1f
800004a4:	c319                	beqz	a4,800004aa <mmode_intr_vector_3+0x94>
800004a6:	1930006f          	j	80000e38 <mmode_intr_handler>
800004aa:	00000217          	auipc	tp,0x0
800004ae:	e1a20213          	addi	tp,tp,-486 # 800002c4 <test_done>
800004b2:	00020067          	jr	tp # 0 <_start-0x80000000>

800004b6 <mmode_intr_vector_4>:
800004b6:	340f1f73          	csrrw	t5,mscratch,t5
800004ba:	000f8f33          	add	t5,t6,zero
800004be:	f84f0f13          	addi	t5,t5,-124
800004c2:	001f2223          	sw	ra,4(t5)
800004c6:	002f2423          	sw	sp,8(t5)
800004ca:	003f2623          	sw	gp,12(t5)
800004ce:	004f2823          	sw	tp,16(t5)
800004d2:	005f2a23          	sw	t0,20(t5)
800004d6:	006f2c23          	sw	t1,24(t5)
800004da:	007f2e23          	sw	t2,28(t5)
800004de:	028f2023          	sw	s0,32(t5)
800004e2:	029f2223          	sw	s1,36(t5)
800004e6:	02af2423          	sw	a0,40(t5)
800004ea:	02bf2623          	sw	a1,44(t5)
800004ee:	02cf2823          	sw	a2,48(t5)
800004f2:	02df2a23          	sw	a3,52(t5)
800004f6:	02ef2c23          	sw	a4,56(t5)
800004fa:	02ff2e23          	sw	a5,60(t5)
800004fe:	050f2023          	sw	a6,64(t5)
80000502:	051f2223          	sw	a7,68(t5)
80000506:	052f2423          	sw	s2,72(t5)
8000050a:	053f2623          	sw	s3,76(t5)
8000050e:	054f2823          	sw	s4,80(t5)
80000512:	055f2a23          	sw	s5,84(t5)
80000516:	056f2c23          	sw	s6,88(t5)
8000051a:	057f2e23          	sw	s7,92(t5)
8000051e:	078f2023          	sw	s8,96(t5)
80000522:	079f2223          	sw	s9,100(t5)
80000526:	07af2423          	sw	s10,104(t5)
8000052a:	07bf2623          	sw	s11,108(t5)
8000052e:	07cf2823          	sw	t3,112(t5)
80000532:	07df2a23          	sw	t4,116(t5)
80000536:	07ef2c23          	sw	t5,120(t5)
8000053a:	07ff2e23          	sw	t6,124(t5)
8000053e:	34202773          	csrr	a4,mcause
80000542:	837d                	srli	a4,a4,0x1f
80000544:	c319                	beqz	a4,8000054a <mmode_intr_vector_4+0x94>
80000546:	0f30006f          	j	80000e38 <mmode_intr_handler>
8000054a:	00000217          	auipc	tp,0x0
8000054e:	d7a20213          	addi	tp,tp,-646 # 800002c4 <test_done>
80000552:	00020067          	jr	tp # 0 <_start-0x80000000>

80000556 <mmode_intr_vector_5>:
80000556:	340f1f73          	csrrw	t5,mscratch,t5
8000055a:	000f8f33          	add	t5,t6,zero
8000055e:	f84f0f13          	addi	t5,t5,-124
80000562:	001f2223          	sw	ra,4(t5)
80000566:	002f2423          	sw	sp,8(t5)
8000056a:	003f2623          	sw	gp,12(t5)
8000056e:	004f2823          	sw	tp,16(t5)
80000572:	005f2a23          	sw	t0,20(t5)
80000576:	006f2c23          	sw	t1,24(t5)
8000057a:	007f2e23          	sw	t2,28(t5)
8000057e:	028f2023          	sw	s0,32(t5)
80000582:	029f2223          	sw	s1,36(t5)
80000586:	02af2423          	sw	a0,40(t5)
8000058a:	02bf2623          	sw	a1,44(t5)
8000058e:	02cf2823          	sw	a2,48(t5)
80000592:	02df2a23          	sw	a3,52(t5)
80000596:	02ef2c23          	sw	a4,56(t5)
8000059a:	02ff2e23          	sw	a5,60(t5)
8000059e:	050f2023          	sw	a6,64(t5)
800005a2:	051f2223          	sw	a7,68(t5)
800005a6:	052f2423          	sw	s2,72(t5)
800005aa:	053f2623          	sw	s3,76(t5)
800005ae:	054f2823          	sw	s4,80(t5)
800005b2:	055f2a23          	sw	s5,84(t5)
800005b6:	056f2c23          	sw	s6,88(t5)
800005ba:	057f2e23          	sw	s7,92(t5)
800005be:	078f2023          	sw	s8,96(t5)
800005c2:	079f2223          	sw	s9,100(t5)
800005c6:	07af2423          	sw	s10,104(t5)
800005ca:	07bf2623          	sw	s11,108(t5)
800005ce:	07cf2823          	sw	t3,112(t5)
800005d2:	07df2a23          	sw	t4,116(t5)
800005d6:	07ef2c23          	sw	t5,120(t5)
800005da:	07ff2e23          	sw	t6,124(t5)
800005de:	34202773          	csrr	a4,mcause
800005e2:	837d                	srli	a4,a4,0x1f
800005e4:	c319                	beqz	a4,800005ea <mmode_intr_vector_5+0x94>
800005e6:	0530006f          	j	80000e38 <mmode_intr_handler>
800005ea:	00000217          	auipc	tp,0x0
800005ee:	cda20213          	addi	tp,tp,-806 # 800002c4 <test_done>
800005f2:	00020067          	jr	tp # 0 <_start-0x80000000>

800005f6 <mmode_intr_vector_6>:
800005f6:	340f1f73          	csrrw	t5,mscratch,t5
800005fa:	000f8f33          	add	t5,t6,zero
800005fe:	f84f0f13          	addi	t5,t5,-124
80000602:	001f2223          	sw	ra,4(t5)
80000606:	002f2423          	sw	sp,8(t5)
8000060a:	003f2623          	sw	gp,12(t5)
8000060e:	004f2823          	sw	tp,16(t5)
80000612:	005f2a23          	sw	t0,20(t5)
80000616:	006f2c23          	sw	t1,24(t5)
8000061a:	007f2e23          	sw	t2,28(t5)
8000061e:	028f2023          	sw	s0,32(t5)
80000622:	029f2223          	sw	s1,36(t5)
80000626:	02af2423          	sw	a0,40(t5)
8000062a:	02bf2623          	sw	a1,44(t5)
8000062e:	02cf2823          	sw	a2,48(t5)
80000632:	02df2a23          	sw	a3,52(t5)
80000636:	02ef2c23          	sw	a4,56(t5)
8000063a:	02ff2e23          	sw	a5,60(t5)
8000063e:	050f2023          	sw	a6,64(t5)
80000642:	051f2223          	sw	a7,68(t5)
80000646:	052f2423          	sw	s2,72(t5)
8000064a:	053f2623          	sw	s3,76(t5)
8000064e:	054f2823          	sw	s4,80(t5)
80000652:	055f2a23          	sw	s5,84(t5)
80000656:	056f2c23          	sw	s6,88(t5)
8000065a:	057f2e23          	sw	s7,92(t5)
8000065e:	078f2023          	sw	s8,96(t5)
80000662:	079f2223          	sw	s9,100(t5)
80000666:	07af2423          	sw	s10,104(t5)
8000066a:	07bf2623          	sw	s11,108(t5)
8000066e:	07cf2823          	sw	t3,112(t5)
80000672:	07df2a23          	sw	t4,116(t5)
80000676:	07ef2c23          	sw	t5,120(t5)
8000067a:	07ff2e23          	sw	t6,124(t5)
8000067e:	34202773          	csrr	a4,mcause
80000682:	837d                	srli	a4,a4,0x1f
80000684:	c311                	beqz	a4,80000688 <mmode_intr_vector_6+0x92>
80000686:	af4d                	j	80000e38 <mmode_intr_handler>
80000688:	00000217          	auipc	tp,0x0
8000068c:	c3c20213          	addi	tp,tp,-964 # 800002c4 <test_done>
80000690:	00020067          	jr	tp # 0 <_start-0x80000000>

80000694 <mmode_intr_vector_7>:
80000694:	340f1f73          	csrrw	t5,mscratch,t5
80000698:	000f8f33          	add	t5,t6,zero
8000069c:	f84f0f13          	addi	t5,t5,-124
800006a0:	001f2223          	sw	ra,4(t5)
800006a4:	002f2423          	sw	sp,8(t5)
800006a8:	003f2623          	sw	gp,12(t5)
800006ac:	004f2823          	sw	tp,16(t5)
800006b0:	005f2a23          	sw	t0,20(t5)
800006b4:	006f2c23          	sw	t1,24(t5)
800006b8:	007f2e23          	sw	t2,28(t5)
800006bc:	028f2023          	sw	s0,32(t5)
800006c0:	029f2223          	sw	s1,36(t5)
800006c4:	02af2423          	sw	a0,40(t5)
800006c8:	02bf2623          	sw	a1,44(t5)
800006cc:	02cf2823          	sw	a2,48(t5)
800006d0:	02df2a23          	sw	a3,52(t5)
800006d4:	02ef2c23          	sw	a4,56(t5)
800006d8:	02ff2e23          	sw	a5,60(t5)
800006dc:	050f2023          	sw	a6,64(t5)
800006e0:	051f2223          	sw	a7,68(t5)
800006e4:	052f2423          	sw	s2,72(t5)
800006e8:	053f2623          	sw	s3,76(t5)
800006ec:	054f2823          	sw	s4,80(t5)
800006f0:	055f2a23          	sw	s5,84(t5)
800006f4:	056f2c23          	sw	s6,88(t5)
800006f8:	057f2e23          	sw	s7,92(t5)
800006fc:	078f2023          	sw	s8,96(t5)
80000700:	079f2223          	sw	s9,100(t5)
80000704:	07af2423          	sw	s10,104(t5)
80000708:	07bf2623          	sw	s11,108(t5)
8000070c:	07cf2823          	sw	t3,112(t5)
80000710:	07df2a23          	sw	t4,116(t5)
80000714:	07ef2c23          	sw	t5,120(t5)
80000718:	07ff2e23          	sw	t6,124(t5)
8000071c:	34202773          	csrr	a4,mcause
80000720:	837d                	srli	a4,a4,0x1f
80000722:	c311                	beqz	a4,80000726 <mmode_intr_vector_7+0x92>
80000724:	af11                	j	80000e38 <mmode_intr_handler>
80000726:	00000217          	auipc	tp,0x0
8000072a:	b9e20213          	addi	tp,tp,-1122 # 800002c4 <test_done>
8000072e:	00020067          	jr	tp # 0 <_start-0x80000000>

80000732 <mmode_intr_vector_8>:
80000732:	340f1f73          	csrrw	t5,mscratch,t5
80000736:	000f8f33          	add	t5,t6,zero
8000073a:	f84f0f13          	addi	t5,t5,-124
8000073e:	001f2223          	sw	ra,4(t5)
80000742:	002f2423          	sw	sp,8(t5)
80000746:	003f2623          	sw	gp,12(t5)
8000074a:	004f2823          	sw	tp,16(t5)
8000074e:	005f2a23          	sw	t0,20(t5)
80000752:	006f2c23          	sw	t1,24(t5)
80000756:	007f2e23          	sw	t2,28(t5)
8000075a:	028f2023          	sw	s0,32(t5)
8000075e:	029f2223          	sw	s1,36(t5)
80000762:	02af2423          	sw	a0,40(t5)
80000766:	02bf2623          	sw	a1,44(t5)
8000076a:	02cf2823          	sw	a2,48(t5)
8000076e:	02df2a23          	sw	a3,52(t5)
80000772:	02ef2c23          	sw	a4,56(t5)
80000776:	02ff2e23          	sw	a5,60(t5)
8000077a:	050f2023          	sw	a6,64(t5)
8000077e:	051f2223          	sw	a7,68(t5)
80000782:	052f2423          	sw	s2,72(t5)
80000786:	053f2623          	sw	s3,76(t5)
8000078a:	054f2823          	sw	s4,80(t5)
8000078e:	055f2a23          	sw	s5,84(t5)
80000792:	056f2c23          	sw	s6,88(t5)
80000796:	057f2e23          	sw	s7,92(t5)
8000079a:	078f2023          	sw	s8,96(t5)
8000079e:	079f2223          	sw	s9,100(t5)
800007a2:	07af2423          	sw	s10,104(t5)
800007a6:	07bf2623          	sw	s11,108(t5)
800007aa:	07cf2823          	sw	t3,112(t5)
800007ae:	07df2a23          	sw	t4,116(t5)
800007b2:	07ef2c23          	sw	t5,120(t5)
800007b6:	07ff2e23          	sw	t6,124(t5)
800007ba:	34202773          	csrr	a4,mcause
800007be:	837d                	srli	a4,a4,0x1f
800007c0:	c311                	beqz	a4,800007c4 <mmode_intr_vector_8+0x92>
800007c2:	ad9d                	j	80000e38 <mmode_intr_handler>
800007c4:	00000217          	auipc	tp,0x0
800007c8:	b0020213          	addi	tp,tp,-1280 # 800002c4 <test_done>
800007cc:	00020067          	jr	tp # 0 <_start-0x80000000>

800007d0 <mmode_intr_vector_9>:
800007d0:	340f1f73          	csrrw	t5,mscratch,t5
800007d4:	000f8f33          	add	t5,t6,zero
800007d8:	f84f0f13          	addi	t5,t5,-124
800007dc:	001f2223          	sw	ra,4(t5)
800007e0:	002f2423          	sw	sp,8(t5)
800007e4:	003f2623          	sw	gp,12(t5)
800007e8:	004f2823          	sw	tp,16(t5)
800007ec:	005f2a23          	sw	t0,20(t5)
800007f0:	006f2c23          	sw	t1,24(t5)
800007f4:	007f2e23          	sw	t2,28(t5)
800007f8:	028f2023          	sw	s0,32(t5)
800007fc:	029f2223          	sw	s1,36(t5)
80000800:	02af2423          	sw	a0,40(t5)
80000804:	02bf2623          	sw	a1,44(t5)
80000808:	02cf2823          	sw	a2,48(t5)
8000080c:	02df2a23          	sw	a3,52(t5)
80000810:	02ef2c23          	sw	a4,56(t5)
80000814:	02ff2e23          	sw	a5,60(t5)
80000818:	050f2023          	sw	a6,64(t5)
8000081c:	051f2223          	sw	a7,68(t5)
80000820:	052f2423          	sw	s2,72(t5)
80000824:	053f2623          	sw	s3,76(t5)
80000828:	054f2823          	sw	s4,80(t5)
8000082c:	055f2a23          	sw	s5,84(t5)
80000830:	056f2c23          	sw	s6,88(t5)
80000834:	057f2e23          	sw	s7,92(t5)
80000838:	078f2023          	sw	s8,96(t5)
8000083c:	079f2223          	sw	s9,100(t5)
80000840:	07af2423          	sw	s10,104(t5)
80000844:	07bf2623          	sw	s11,108(t5)
80000848:	07cf2823          	sw	t3,112(t5)
8000084c:	07df2a23          	sw	t4,116(t5)
80000850:	07ef2c23          	sw	t5,120(t5)
80000854:	07ff2e23          	sw	t6,124(t5)
80000858:	34202773          	csrr	a4,mcause
8000085c:	837d                	srli	a4,a4,0x1f
8000085e:	c311                	beqz	a4,80000862 <mmode_intr_vector_9+0x92>
80000860:	abe1                	j	80000e38 <mmode_intr_handler>
80000862:	00000217          	auipc	tp,0x0
80000866:	a6220213          	addi	tp,tp,-1438 # 800002c4 <test_done>
8000086a:	00020067          	jr	tp # 0 <_start-0x80000000>

8000086e <mmode_intr_vector_10>:
8000086e:	340f1f73          	csrrw	t5,mscratch,t5
80000872:	000f8f33          	add	t5,t6,zero
80000876:	f84f0f13          	addi	t5,t5,-124
8000087a:	001f2223          	sw	ra,4(t5)
8000087e:	002f2423          	sw	sp,8(t5)
80000882:	003f2623          	sw	gp,12(t5)
80000886:	004f2823          	sw	tp,16(t5)
8000088a:	005f2a23          	sw	t0,20(t5)
8000088e:	006f2c23          	sw	t1,24(t5)
80000892:	007f2e23          	sw	t2,28(t5)
80000896:	028f2023          	sw	s0,32(t5)
8000089a:	029f2223          	sw	s1,36(t5)
8000089e:	02af2423          	sw	a0,40(t5)
800008a2:	02bf2623          	sw	a1,44(t5)
800008a6:	02cf2823          	sw	a2,48(t5)
800008aa:	02df2a23          	sw	a3,52(t5)
800008ae:	02ef2c23          	sw	a4,56(t5)
800008b2:	02ff2e23          	sw	a5,60(t5)
800008b6:	050f2023          	sw	a6,64(t5)
800008ba:	051f2223          	sw	a7,68(t5)
800008be:	052f2423          	sw	s2,72(t5)
800008c2:	053f2623          	sw	s3,76(t5)
800008c6:	054f2823          	sw	s4,80(t5)
800008ca:	055f2a23          	sw	s5,84(t5)
800008ce:	056f2c23          	sw	s6,88(t5)
800008d2:	057f2e23          	sw	s7,92(t5)
800008d6:	078f2023          	sw	s8,96(t5)
800008da:	079f2223          	sw	s9,100(t5)
800008de:	07af2423          	sw	s10,104(t5)
800008e2:	07bf2623          	sw	s11,108(t5)
800008e6:	07cf2823          	sw	t3,112(t5)
800008ea:	07df2a23          	sw	t4,116(t5)
800008ee:	07ef2c23          	sw	t5,120(t5)
800008f2:	07ff2e23          	sw	t6,124(t5)
800008f6:	34202773          	csrr	a4,mcause
800008fa:	837d                	srli	a4,a4,0x1f
800008fc:	c311                	beqz	a4,80000900 <mmode_intr_vector_10+0x92>
800008fe:	ab2d                	j	80000e38 <mmode_intr_handler>
80000900:	00000217          	auipc	tp,0x0
80000904:	9c420213          	addi	tp,tp,-1596 # 800002c4 <test_done>
80000908:	00020067          	jr	tp # 0 <_start-0x80000000>

8000090c <mmode_intr_vector_11>:
8000090c:	340f1f73          	csrrw	t5,mscratch,t5
80000910:	000f8f33          	add	t5,t6,zero
80000914:	f84f0f13          	addi	t5,t5,-124
80000918:	001f2223          	sw	ra,4(t5)
8000091c:	002f2423          	sw	sp,8(t5)
80000920:	003f2623          	sw	gp,12(t5)
80000924:	004f2823          	sw	tp,16(t5)
80000928:	005f2a23          	sw	t0,20(t5)
8000092c:	006f2c23          	sw	t1,24(t5)
80000930:	007f2e23          	sw	t2,28(t5)
80000934:	028f2023          	sw	s0,32(t5)
80000938:	029f2223          	sw	s1,36(t5)
8000093c:	02af2423          	sw	a0,40(t5)
80000940:	02bf2623          	sw	a1,44(t5)
80000944:	02cf2823          	sw	a2,48(t5)
80000948:	02df2a23          	sw	a3,52(t5)
8000094c:	02ef2c23          	sw	a4,56(t5)
80000950:	02ff2e23          	sw	a5,60(t5)
80000954:	050f2023          	sw	a6,64(t5)
80000958:	051f2223          	sw	a7,68(t5)
8000095c:	052f2423          	sw	s2,72(t5)
80000960:	053f2623          	sw	s3,76(t5)
80000964:	054f2823          	sw	s4,80(t5)
80000968:	055f2a23          	sw	s5,84(t5)
8000096c:	056f2c23          	sw	s6,88(t5)
80000970:	057f2e23          	sw	s7,92(t5)
80000974:	078f2023          	sw	s8,96(t5)
80000978:	079f2223          	sw	s9,100(t5)
8000097c:	07af2423          	sw	s10,104(t5)
80000980:	07bf2623          	sw	s11,108(t5)
80000984:	07cf2823          	sw	t3,112(t5)
80000988:	07df2a23          	sw	t4,116(t5)
8000098c:	07ef2c23          	sw	t5,120(t5)
80000990:	07ff2e23          	sw	t6,124(t5)
80000994:	34202773          	csrr	a4,mcause
80000998:	837d                	srli	a4,a4,0x1f
8000099a:	c311                	beqz	a4,8000099e <mmode_intr_vector_11+0x92>
8000099c:	a971                	j	80000e38 <mmode_intr_handler>
8000099e:	00000217          	auipc	tp,0x0
800009a2:	92620213          	addi	tp,tp,-1754 # 800002c4 <test_done>
800009a6:	00020067          	jr	tp # 0 <_start-0x80000000>

800009aa <mmode_intr_vector_12>:
800009aa:	340f1f73          	csrrw	t5,mscratch,t5
800009ae:	000f8f33          	add	t5,t6,zero
800009b2:	f84f0f13          	addi	t5,t5,-124
800009b6:	001f2223          	sw	ra,4(t5)
800009ba:	002f2423          	sw	sp,8(t5)
800009be:	003f2623          	sw	gp,12(t5)
800009c2:	004f2823          	sw	tp,16(t5)
800009c6:	005f2a23          	sw	t0,20(t5)
800009ca:	006f2c23          	sw	t1,24(t5)
800009ce:	007f2e23          	sw	t2,28(t5)
800009d2:	028f2023          	sw	s0,32(t5)
800009d6:	029f2223          	sw	s1,36(t5)
800009da:	02af2423          	sw	a0,40(t5)
800009de:	02bf2623          	sw	a1,44(t5)
800009e2:	02cf2823          	sw	a2,48(t5)
800009e6:	02df2a23          	sw	a3,52(t5)
800009ea:	02ef2c23          	sw	a4,56(t5)
800009ee:	02ff2e23          	sw	a5,60(t5)
800009f2:	050f2023          	sw	a6,64(t5)
800009f6:	051f2223          	sw	a7,68(t5)
800009fa:	052f2423          	sw	s2,72(t5)
800009fe:	053f2623          	sw	s3,76(t5)
80000a02:	054f2823          	sw	s4,80(t5)
80000a06:	055f2a23          	sw	s5,84(t5)
80000a0a:	056f2c23          	sw	s6,88(t5)
80000a0e:	057f2e23          	sw	s7,92(t5)
80000a12:	078f2023          	sw	s8,96(t5)
80000a16:	079f2223          	sw	s9,100(t5)
80000a1a:	07af2423          	sw	s10,104(t5)
80000a1e:	07bf2623          	sw	s11,108(t5)
80000a22:	07cf2823          	sw	t3,112(t5)
80000a26:	07df2a23          	sw	t4,116(t5)
80000a2a:	07ef2c23          	sw	t5,120(t5)
80000a2e:	07ff2e23          	sw	t6,124(t5)
80000a32:	34202773          	csrr	a4,mcause
80000a36:	837d                	srli	a4,a4,0x1f
80000a38:	c311                	beqz	a4,80000a3c <mmode_intr_vector_12+0x92>
80000a3a:	aefd                	j	80000e38 <mmode_intr_handler>
80000a3c:	00000217          	auipc	tp,0x0
80000a40:	88820213          	addi	tp,tp,-1912 # 800002c4 <test_done>
80000a44:	00020067          	jr	tp # 0 <_start-0x80000000>

80000a48 <mmode_intr_vector_13>:
80000a48:	340f1f73          	csrrw	t5,mscratch,t5
80000a4c:	000f8f33          	add	t5,t6,zero
80000a50:	f84f0f13          	addi	t5,t5,-124
80000a54:	001f2223          	sw	ra,4(t5)
80000a58:	002f2423          	sw	sp,8(t5)
80000a5c:	003f2623          	sw	gp,12(t5)
80000a60:	004f2823          	sw	tp,16(t5)
80000a64:	005f2a23          	sw	t0,20(t5)
80000a68:	006f2c23          	sw	t1,24(t5)
80000a6c:	007f2e23          	sw	t2,28(t5)
80000a70:	028f2023          	sw	s0,32(t5)
80000a74:	029f2223          	sw	s1,36(t5)
80000a78:	02af2423          	sw	a0,40(t5)
80000a7c:	02bf2623          	sw	a1,44(t5)
80000a80:	02cf2823          	sw	a2,48(t5)
80000a84:	02df2a23          	sw	a3,52(t5)
80000a88:	02ef2c23          	sw	a4,56(t5)
80000a8c:	02ff2e23          	sw	a5,60(t5)
80000a90:	050f2023          	sw	a6,64(t5)
80000a94:	051f2223          	sw	a7,68(t5)
80000a98:	052f2423          	sw	s2,72(t5)
80000a9c:	053f2623          	sw	s3,76(t5)
80000aa0:	054f2823          	sw	s4,80(t5)
80000aa4:	055f2a23          	sw	s5,84(t5)
80000aa8:	056f2c23          	sw	s6,88(t5)
80000aac:	057f2e23          	sw	s7,92(t5)
80000ab0:	078f2023          	sw	s8,96(t5)
80000ab4:	079f2223          	sw	s9,100(t5)
80000ab8:	07af2423          	sw	s10,104(t5)
80000abc:	07bf2623          	sw	s11,108(t5)
80000ac0:	07cf2823          	sw	t3,112(t5)
80000ac4:	07df2a23          	sw	t4,116(t5)
80000ac8:	07ef2c23          	sw	t5,120(t5)
80000acc:	07ff2e23          	sw	t6,124(t5)
80000ad0:	34202773          	csrr	a4,mcause
80000ad4:	837d                	srli	a4,a4,0x1f
80000ad6:	c311                	beqz	a4,80000ada <mmode_intr_vector_13+0x92>
80000ad8:	a685                	j	80000e38 <mmode_intr_handler>
80000ada:	fffff217          	auipc	tp,0xfffff
80000ade:	7ea20213          	addi	tp,tp,2026 # 800002c4 <test_done>
80000ae2:	00020067          	jr	tp # 0 <_start-0x80000000>

80000ae6 <mmode_intr_vector_14>:
80000ae6:	340f1f73          	csrrw	t5,mscratch,t5
80000aea:	000f8f33          	add	t5,t6,zero
80000aee:	f84f0f13          	addi	t5,t5,-124
80000af2:	001f2223          	sw	ra,4(t5)
80000af6:	002f2423          	sw	sp,8(t5)
80000afa:	003f2623          	sw	gp,12(t5)
80000afe:	004f2823          	sw	tp,16(t5)
80000b02:	005f2a23          	sw	t0,20(t5)
80000b06:	006f2c23          	sw	t1,24(t5)
80000b0a:	007f2e23          	sw	t2,28(t5)
80000b0e:	028f2023          	sw	s0,32(t5)
80000b12:	029f2223          	sw	s1,36(t5)
80000b16:	02af2423          	sw	a0,40(t5)
80000b1a:	02bf2623          	sw	a1,44(t5)
80000b1e:	02cf2823          	sw	a2,48(t5)
80000b22:	02df2a23          	sw	a3,52(t5)
80000b26:	02ef2c23          	sw	a4,56(t5)
80000b2a:	02ff2e23          	sw	a5,60(t5)
80000b2e:	050f2023          	sw	a6,64(t5)
80000b32:	051f2223          	sw	a7,68(t5)
80000b36:	052f2423          	sw	s2,72(t5)
80000b3a:	053f2623          	sw	s3,76(t5)
80000b3e:	054f2823          	sw	s4,80(t5)
80000b42:	055f2a23          	sw	s5,84(t5)
80000b46:	056f2c23          	sw	s6,88(t5)
80000b4a:	057f2e23          	sw	s7,92(t5)
80000b4e:	078f2023          	sw	s8,96(t5)
80000b52:	079f2223          	sw	s9,100(t5)
80000b56:	07af2423          	sw	s10,104(t5)
80000b5a:	07bf2623          	sw	s11,108(t5)
80000b5e:	07cf2823          	sw	t3,112(t5)
80000b62:	07df2a23          	sw	t4,116(t5)
80000b66:	07ef2c23          	sw	t5,120(t5)
80000b6a:	07ff2e23          	sw	t6,124(t5)
80000b6e:	34202773          	csrr	a4,mcause
80000b72:	837d                	srli	a4,a4,0x1f
80000b74:	c311                	beqz	a4,80000b78 <mmode_intr_vector_14+0x92>
80000b76:	a4c9                	j	80000e38 <mmode_intr_handler>
80000b78:	fffff217          	auipc	tp,0xfffff
80000b7c:	74c20213          	addi	tp,tp,1868 # 800002c4 <test_done>
80000b80:	00020067          	jr	tp # 0 <_start-0x80000000>

80000b84 <mmode_intr_vector_15>:
80000b84:	340f1f73          	csrrw	t5,mscratch,t5
80000b88:	000f8f33          	add	t5,t6,zero
80000b8c:	f84f0f13          	addi	t5,t5,-124
80000b90:	001f2223          	sw	ra,4(t5)
80000b94:	002f2423          	sw	sp,8(t5)
80000b98:	003f2623          	sw	gp,12(t5)
80000b9c:	004f2823          	sw	tp,16(t5)
80000ba0:	005f2a23          	sw	t0,20(t5)
80000ba4:	006f2c23          	sw	t1,24(t5)
80000ba8:	007f2e23          	sw	t2,28(t5)
80000bac:	028f2023          	sw	s0,32(t5)
80000bb0:	029f2223          	sw	s1,36(t5)
80000bb4:	02af2423          	sw	a0,40(t5)
80000bb8:	02bf2623          	sw	a1,44(t5)
80000bbc:	02cf2823          	sw	a2,48(t5)
80000bc0:	02df2a23          	sw	a3,52(t5)
80000bc4:	02ef2c23          	sw	a4,56(t5)
80000bc8:	02ff2e23          	sw	a5,60(t5)
80000bcc:	050f2023          	sw	a6,64(t5)
80000bd0:	051f2223          	sw	a7,68(t5)
80000bd4:	052f2423          	sw	s2,72(t5)
80000bd8:	053f2623          	sw	s3,76(t5)
80000bdc:	054f2823          	sw	s4,80(t5)
80000be0:	055f2a23          	sw	s5,84(t5)
80000be4:	056f2c23          	sw	s6,88(t5)
80000be8:	057f2e23          	sw	s7,92(t5)
80000bec:	078f2023          	sw	s8,96(t5)
80000bf0:	079f2223          	sw	s9,100(t5)
80000bf4:	07af2423          	sw	s10,104(t5)
80000bf8:	07bf2623          	sw	s11,108(t5)
80000bfc:	07cf2823          	sw	t3,112(t5)
80000c00:	07df2a23          	sw	t4,116(t5)
80000c04:	07ef2c23          	sw	t5,120(t5)
80000c08:	07ff2e23          	sw	t6,124(t5)
80000c0c:	34202773          	csrr	a4,mcause
80000c10:	837d                	srli	a4,a4,0x1f
80000c12:	c311                	beqz	a4,80000c16 <mmode_intr_vector_15+0x92>
80000c14:	a415                	j	80000e38 <mmode_intr_handler>
80000c16:	fffff217          	auipc	tp,0xfffff
80000c1a:	6ae20213          	addi	tp,tp,1710 # 800002c4 <test_done>
80000c1e:	00020067          	jr	tp # 0 <_start-0x80000000>
80000c22:	0001                	nop
80000c24:	00000013          	nop
80000c28:	00000013          	nop
80000c2c:	00000013          	nop

80000c30 <mtvec_handler>:
80000c30:	0400006f          	j	80000c70 <mmode_exception_handler>
80000c34:	ea2ff06f          	j	800002d6 <mmode_intr_vector_1>
80000c38:	f3eff06f          	j	80000376 <mmode_intr_vector_2>
80000c3c:	fdaff06f          	j	80000416 <mmode_intr_vector_3>
80000c40:	877ff06f          	j	800004b6 <mmode_intr_vector_4>
80000c44:	913ff06f          	j	80000556 <mmode_intr_vector_5>
80000c48:	9afff06f          	j	800005f6 <mmode_intr_vector_6>
80000c4c:	a49ff06f          	j	80000694 <mmode_intr_vector_7>
80000c50:	ae3ff06f          	j	80000732 <mmode_intr_vector_8>
80000c54:	b7dff06f          	j	800007d0 <mmode_intr_vector_9>
80000c58:	c17ff06f          	j	8000086e <mmode_intr_vector_10>
80000c5c:	cb1ff06f          	j	8000090c <mmode_intr_vector_11>
80000c60:	d4bff06f          	j	800009aa <mmode_intr_vector_12>
80000c64:	de5ff06f          	j	80000a48 <mmode_intr_vector_13>
80000c68:	e7fff06f          	j	80000ae6 <mmode_intr_vector_14>
80000c6c:	f19ff06f          	j	80000b84 <mmode_intr_vector_15>

80000c70 <mmode_exception_handler>:
80000c70:	340f1f73          	csrrw	t5,mscratch,t5
80000c74:	000f8f33          	add	t5,t6,zero
80000c78:	f84f0f13          	addi	t5,t5,-124
80000c7c:	001f2223          	sw	ra,4(t5)
80000c80:	002f2423          	sw	sp,8(t5)
80000c84:	003f2623          	sw	gp,12(t5)
80000c88:	004f2823          	sw	tp,16(t5)
80000c8c:	005f2a23          	sw	t0,20(t5)
80000c90:	006f2c23          	sw	t1,24(t5)
80000c94:	007f2e23          	sw	t2,28(t5)
80000c98:	028f2023          	sw	s0,32(t5)
80000c9c:	029f2223          	sw	s1,36(t5)
80000ca0:	02af2423          	sw	a0,40(t5)
80000ca4:	02bf2623          	sw	a1,44(t5)
80000ca8:	02cf2823          	sw	a2,48(t5)
80000cac:	02df2a23          	sw	a3,52(t5)
80000cb0:	02ef2c23          	sw	a4,56(t5)
80000cb4:	02ff2e23          	sw	a5,60(t5)
80000cb8:	050f2023          	sw	a6,64(t5)
80000cbc:	051f2223          	sw	a7,68(t5)
80000cc0:	052f2423          	sw	s2,72(t5)
80000cc4:	053f2623          	sw	s3,76(t5)
80000cc8:	054f2823          	sw	s4,80(t5)
80000ccc:	055f2a23          	sw	s5,84(t5)
80000cd0:	056f2c23          	sw	s6,88(t5)
80000cd4:	057f2e23          	sw	s7,92(t5)
80000cd8:	078f2023          	sw	s8,96(t5)
80000cdc:	079f2223          	sw	s9,100(t5)
80000ce0:	07af2423          	sw	s10,104(t5)
80000ce4:	07bf2623          	sw	s11,108(t5)
80000ce8:	07cf2823          	sw	t3,112(t5)
80000cec:	07df2a23          	sw	t4,116(t5)
80000cf0:	07ef2c23          	sw	t5,120(t5)
80000cf4:	07ff2e23          	sw	t6,124(t5)
80000cf8:	34102773          	csrr	a4,mepc
80000cfc:	34202773          	csrr	a4,mcause
80000d00:	462d                	li	a2,11
80000d02:	00c70d63          	beq	a4,a2,80000d1c <ecall_handler>
80000d06:	4609                	li	a2,2
80000d08:	08c70c63          	beq	a4,a2,80000da0 <illegal_instr_handler>
80000d0c:	34302673          	csrr	a2,mtval
80000d10:	fffff217          	auipc	tp,0xfffff
80000d14:	5b420213          	addi	tp,tp,1460 # 800002c4 <test_done>
80000d18:	000200e7          	jalr	tp # 0 <_start-0x80000000>

80000d1c <ecall_handler>:
80000d1c:	fffff717          	auipc	a4,0xfffff
80000d20:	2e470713          	addi	a4,a4,740 # 80000000 <_start>
80000d24:	00072023          	sw	zero,0(a4)
80000d28:	00172223          	sw	ra,4(a4)
80000d2c:	00272423          	sw	sp,8(a4)
80000d30:	00372623          	sw	gp,12(a4)
80000d34:	00472823          	sw	tp,16(a4)
80000d38:	00572a23          	sw	t0,20(a4)
80000d3c:	00672c23          	sw	t1,24(a4)
80000d40:	00772e23          	sw	t2,28(a4)
80000d44:	d300                	sw	s0,32(a4)
80000d46:	d344                	sw	s1,36(a4)
80000d48:	d708                	sw	a0,40(a4)
80000d4a:	d74c                	sw	a1,44(a4)
80000d4c:	db10                	sw	a2,48(a4)
80000d4e:	db54                	sw	a3,52(a4)
80000d50:	df18                	sw	a4,56(a4)
80000d52:	df5c                	sw	a5,60(a4)
80000d54:	05072023          	sw	a6,64(a4)
80000d58:	05172223          	sw	a7,68(a4)
80000d5c:	05272423          	sw	s2,72(a4)
80000d60:	05372623          	sw	s3,76(a4)
80000d64:	05472823          	sw	s4,80(a4)
80000d68:	05572a23          	sw	s5,84(a4)
80000d6c:	05672c23          	sw	s6,88(a4)
80000d70:	05772e23          	sw	s7,92(a4)
80000d74:	07872023          	sw	s8,96(a4)
80000d78:	07972223          	sw	s9,100(a4)
80000d7c:	07a72423          	sw	s10,104(a4)
80000d80:	07b72623          	sw	s11,108(a4)
80000d84:	07c72823          	sw	t3,112(a4)
80000d88:	07d72a23          	sw	t4,116(a4)
80000d8c:	07e72c23          	sw	t5,120(a4)
80000d90:	07f72e23          	sw	t6,124(a4)
80000d94:	fffff217          	auipc	tp,0xfffff
80000d98:	53620213          	addi	tp,tp,1334 # 800002ca <write_tohost>
80000d9c:	00020067          	jr	tp # 0 <_start-0x80000000>

80000da0 <illegal_instr_handler>:
80000da0:	34102773          	csrr	a4,mepc
80000da4:	0711                	addi	a4,a4,4
80000da6:	34171073          	csrw	mepc,a4
80000daa:	004f2083          	lw	ra,4(t5)
80000dae:	008f2103          	lw	sp,8(t5)
80000db2:	00cf2183          	lw	gp,12(t5)
80000db6:	010f2203          	lw	tp,16(t5)
80000dba:	014f2283          	lw	t0,20(t5)
80000dbe:	018f2303          	lw	t1,24(t5)
80000dc2:	01cf2383          	lw	t2,28(t5)
80000dc6:	020f2403          	lw	s0,32(t5)
80000dca:	024f2483          	lw	s1,36(t5)
80000dce:	028f2503          	lw	a0,40(t5)
80000dd2:	02cf2583          	lw	a1,44(t5)
80000dd6:	030f2603          	lw	a2,48(t5)
80000dda:	034f2683          	lw	a3,52(t5)
80000dde:	038f2703          	lw	a4,56(t5)
80000de2:	03cf2783          	lw	a5,60(t5)
80000de6:	040f2803          	lw	a6,64(t5)
80000dea:	044f2883          	lw	a7,68(t5)
80000dee:	048f2903          	lw	s2,72(t5)
80000df2:	04cf2983          	lw	s3,76(t5)
80000df6:	050f2a03          	lw	s4,80(t5)
80000dfa:	054f2a83          	lw	s5,84(t5)
80000dfe:	058f2b03          	lw	s6,88(t5)
80000e02:	05cf2b83          	lw	s7,92(t5)
80000e06:	060f2c03          	lw	s8,96(t5)
80000e0a:	064f2c83          	lw	s9,100(t5)
80000e0e:	068f2d03          	lw	s10,104(t5)
80000e12:	06cf2d83          	lw	s11,108(t5)
80000e16:	070f2e03          	lw	t3,112(t5)
80000e1a:	074f2e83          	lw	t4,116(t5)
80000e1e:	078f2f03          	lw	t5,120(t5)
80000e22:	07cf2f83          	lw	t6,124(t5)
80000e26:	07cf0f13          	addi	t5,t5,124
80000e2a:	000f0fb3          	add	t6,t5,zero
80000e2e:	340f1f73          	csrrw	t5,mscratch,t5
80000e32:	30200073          	mret

80000e36 <pt_fault_handler>:
80000e36:	0001                	nop

80000e38 <mmode_intr_handler>:
80000e38:	30002773          	csrr	a4,mstatus
80000e3c:	30402773          	csrr	a4,mie
80000e40:	34402773          	csrr	a4,mip
80000e44:	34473773          	csrrc	a4,mip,a4
80000e48:	004f2083          	lw	ra,4(t5)
80000e4c:	008f2103          	lw	sp,8(t5)
80000e50:	00cf2183          	lw	gp,12(t5)
80000e54:	010f2203          	lw	tp,16(t5)
80000e58:	014f2283          	lw	t0,20(t5)
80000e5c:	018f2303          	lw	t1,24(t5)
80000e60:	01cf2383          	lw	t2,28(t5)
80000e64:	020f2403          	lw	s0,32(t5)
80000e68:	024f2483          	lw	s1,36(t5)
80000e6c:	028f2503          	lw	a0,40(t5)
80000e70:	02cf2583          	lw	a1,44(t5)
80000e74:	030f2603          	lw	a2,48(t5)
80000e78:	034f2683          	lw	a3,52(t5)
80000e7c:	038f2703          	lw	a4,56(t5)
80000e80:	03cf2783          	lw	a5,60(t5)
80000e84:	040f2803          	lw	a6,64(t5)
80000e88:	044f2883          	lw	a7,68(t5)
80000e8c:	048f2903          	lw	s2,72(t5)
80000e90:	04cf2983          	lw	s3,76(t5)
80000e94:	050f2a03          	lw	s4,80(t5)
80000e98:	054f2a83          	lw	s5,84(t5)
80000e9c:	058f2b03          	lw	s6,88(t5)
80000ea0:	05cf2b83          	lw	s7,92(t5)
80000ea4:	060f2c03          	lw	s8,96(t5)
80000ea8:	064f2c83          	lw	s9,100(t5)
80000eac:	068f2d03          	lw	s10,104(t5)
80000eb0:	06cf2d83          	lw	s11,108(t5)
80000eb4:	070f2e03          	lw	t3,112(t5)
80000eb8:	074f2e83          	lw	t4,116(t5)
80000ebc:	078f2f03          	lw	t5,120(t5)
80000ec0:	07cf2f83          	lw	t6,124(t5)
80000ec4:	07cf0f13          	addi	t5,t5,124
80000ec8:	000f0fb3          	add	t6,t5,zero
80000ecc:	340f1f73          	csrrw	t5,mscratch,t5
80000ed0:	30200073          	mret

80000ed4 <kernel_instr_end>:
80000ed4:	0001                	nop
80000ed6:	0001                	nop

80000ed8 <kernel_data_start>:
	...
