
riscv_arithmetic_basic_test_0.exe:     file format elf32-littleriscv


Disassembly of section .text:

80000000 <_start>:
80000000:	f14022f3          	csrr	t0,mhartid
80000004:	4301                	li	t1,0
80000006:	00628263          	beq	t0,t1,8000000a <_start+0xa>
8000000a:	00000397          	auipc	t2,0x0
8000000e:	00c38393          	addi	t2,t2,12 # 80000016 <h0_start>
80000012:	00038067          	jr	t2

80000016 <h0_start>:
80000016:	40001fb7          	lui	t6,0x40001
8000001a:	104f8f93          	addi	t6,t6,260 # 40001104 <_start-0x3fffeefc>
8000001e:	301f9073          	csrw	misa,t6

80000022 <kernel_sp>:
80000022:	7004a697          	auipc	a3,0x7004a
80000026:	c6268693          	addi	a3,a3,-926 # f0049c84 <kernel_stack_end>

8000002a <trap_vec_init>:
8000002a:	00002f97          	auipc	t6,0x2
8000002e:	016f8f93          	addi	t6,t6,22 # 80002040 <mtvec_handler>
80000032:	001fef93          	ori	t6,t6,1
80000036:	305f9073          	csrw	mtvec,t6

8000003a <mepc_setup>:
8000003a:	00000f97          	auipc	t6,0x0
8000003e:	020f8f93          	addi	t6,t6,32 # 8000005a <init>
80000042:	341f9073          	csrw	mepc,t6

80000046 <init_machine_mode>:
80000046:	6f89                	lui	t6,0x2
80000048:	c00f8f93          	addi	t6,t6,-1024 # 1c00 <_start-0x7fffe400>
8000004c:	300f9073          	csrw	mstatus,t6
80000050:	4f81                	li	t6,0
80000052:	304f9073          	csrw	mie,t6
80000056:	30200073          	mret

8000005a <init>:
8000005a:	13dfa037          	lui	zero,0x13dfa
8000005e:	65100013          	li	zero,1617
80000062:	4081                	li	ra,0
80000064:	2952b137          	lui	sp,0x2952b
80000068:	07310113          	addi	sp,sp,115 # 2952b073 <_start-0x56ad4f8d>
8000006c:	800001b7          	lui	gp,0x80000
80000070:	4219                	li	tp,6
80000072:	567c72b7          	lui	t0,0x567c7
80000076:	62a28293          	addi	t0,t0,1578 # 567c762a <_start-0x298389d6>
8000007a:	4325                	li	t1,9
8000007c:	fe23b3b7          	lui	t2,0xfe23b
80000080:	7c638393          	addi	t2,t2,1990 # fe23b7c6 <STACK+0xe1f0b36>
80000084:	4401                	li	s0,0
80000086:	800004b7          	lui	s1,0x80000
8000008a:	80000537          	lui	a0,0x80000
8000008e:	fc45b5b7          	lui	a1,0xfc45b
80000092:	c2658593          	addi	a1,a1,-986 # fc45ac26 <STACK+0xc40ff96>
80000096:	1a330637          	lui	a2,0x1a330
8000009a:	c6860613          	addi	a2,a2,-920 # 1a32fc68 <_start-0x65cd0398>
8000009e:	473d                	li	a4,15
800000a0:	47b9                	li	a5,14
800000a2:	80000837          	lui	a6,0x80000
800000a6:	23a448b7          	lui	a7,0x23a44
800000aa:	a1888893          	addi	a7,a7,-1512 # 23a43a18 <_start-0x5c5bc5e8>
800000ae:	fa83b937          	lui	s2,0xfa83b
800000b2:	5bc90913          	addi	s2,s2,1468 # fa83b5bc <STACK+0xa7f092c>
800000b6:	49a5                	li	s3,9
800000b8:	f5a1da37          	lui	s4,0xf5a1d
800000bc:	8a6a0a13          	addi	s4,s4,-1882 # f5a1c8a6 <STACK+0x59d1c16>
800000c0:	80000ab7          	lui	s5,0x80000
800000c4:	4b01                	li	s6,0
800000c6:	34452bb7          	lui	s7,0x34452
800000ca:	1d6b8b93          	addi	s7,s7,470 # 344521d6 <_start-0x4bbade2a>
800000ce:	4c11                	li	s8,4
800000d0:	4cb1                	li	s9,12
800000d2:	4d01                	li	s10,0
800000d4:	f8774e37          	lui	t3,0xf8774
800000d8:	7bfe0e13          	addi	t3,t3,1983 # f87747bf <STACK+0x8729b2f>
800000dc:	80000eb7          	lui	t4,0x80000
800000e0:	4f09                	li	t5,2
800000e2:	4f81                	li	t6,0
800000e4:	70045d97          	auipc	s11,0x70045
800000e8:	d80d8d93          	addi	s11,s11,-640 # f0044e64 <user_stack_end>

800000ec <main>:
800000ec:	4e01                	li	t3,0
800000ee:	4f81                	li	t6,0
800000f0:	4805                	li	a6,1
800000f2:	4f05                	li	t5,1
800000f4:	0f837eb7          	lui	t4,0xf837
800000f8:	45ce8e93          	addi	t4,t4,1116 # f83745c <_start-0x707c8ba4>
800000fc:	597a17b7          	lui	a5,0x597a1
80000100:	9b578793          	addi	a5,a5,-1611 # 597a09b5 <_start-0x2685f64b>
80000104:	4285                	li	t0,1
80000106:	4a85                	li	s5,1
80000108:	4701                	li	a4,0
8000010a:	4b81                	li	s7,0
8000010c:	02fd3033          	mulhu	zero,s10,a5
80000110:	c0b8de37          	lui	t3,0xc0b8d
80000114:	02b42a33          	mulhsu	s4,s0,a1
80000118:	8d09                	sub	a0,a0,a0
8000011a:	15517c97          	auipc	s9,0x15517
8000011e:	03fe97b3          	mulh	a5,t4,t6
80000122:	8cf53a37          	lui	s4,0x8cf53
80000126:	0001                	nop
80000128:	03ecce33          	div	t3,s9,t5
8000012c:	026bc0b3          	div	ra,s7,t1
80000130:	6e75                	lui	t3,0x1d
80000132:	0001                	nop
80000134:	03a2a2b3          	mulhsu	t0,t0,s10
80000138:	03fc6433          	rem	s0,s8,t6
8000013c:	02cf3633          	mulhu	a2,t5,a2
80000140:	0b08                	addi	a0,sp,400
80000142:	ff2a8017          	auipc	zero,0xff2a8
80000146:	0b271037          	lui	zero,0xb271
8000014a:	50fd                	li	ra,-1
8000014c:	02490eb3          	mul	t4,s2,tp
80000150:	4556a717          	auipc	a4,0x4556a
80000154:	8cfe                	mv	s9,t6
80000156:	ddf70337          	lui	t1,0xddf70
8000015a:	0001                	nop
8000015c:	02acdb33          	divu	s6,s9,a0
80000160:	4d01                	li	s10,0
80000162:	4f01                	li	t5,0
80000164:	4f85                	li	t6,1
80000166:	4e81                	li	t4,0
80000168:	4e01                	li	t3,0
8000016a:	0d5e0737          	lui	a4,0xd5e0
8000016e:	e6670713          	addi	a4,a4,-410 # d5dfe66 <_start-0x72a2019a>
80000172:	4a81                	li	s5,0
80000174:	4601                	li	a2,0
80000176:	4c81                	li	s9,0
80000178:	4781                	li	a5,0
8000017a:	1508                	addi	a0,sp,672
8000017c:	59fd                	li	s3,-1
8000017e:	03cd8033          	mul	zero,s11,t3
80000182:	8f8a                	mv	t6,sp
80000184:	0001                	nop
80000186:	09e1                	addi	s3,s3,24
80000188:	0001                	nop
8000018a:	02daa133          	mulhsu	sp,s5,a3
8000018e:	6131                	addi	sp,sp,320
80000190:	03813033          	mulhu	zero,sp,s8
80000194:	6ee1                	lui	t4,0x18
80000196:	9092                	add	ra,ra,tp
80000198:	02cfc7b3          	div	a5,t6,a2
8000019c:	40f102b3          	sub	t0,sp,a5
800001a0:	02236733          	rem	a4,t1,sp
800001a4:	c1410c93          	addi	s9,sp,-1004
800001a8:	117d                	addi	sp,sp,-1
800001aa:	808e                	mv	ra,gp
800001ac:	8d11                	sub	a0,a0,a2
800001ae:	d228e117          	auipc	sp,0xd228e
800001b2:	0351                	addi	t1,t1,20 # ddf70014 <STACK+0xedf25384>
800001b4:	02e4ba33          	mulhu	s4,s1,a4
800001b8:	020c8433          	mul	s0,s9,zero
800001bc:	faa12617          	auipc	a2,0xfaa12
800001c0:	026454b3          	divu	s1,s0,t1
800001c4:	8532                	mv	a0,a2
800001c6:	4e4a0a93          	addi	s5,s4,1252 # 8cf534e4 <STACK+0x9cf08854>
800001ca:	034e00b3          	mul	ra,t3,s4
800001ce:	8d11                	sub	a0,a0,a2
800001d0:	4201                	li	tp,0
800001d2:	4f81                	li	t6,0
800001d4:	4f05                	li	t5,1
800001d6:	4e85                	li	t4,1
800001d8:	4485                	li	s1,1
800001da:	4c85                	li	s9,1
800001dc:	4e01                	li	t3,0
800001de:	4605                	li	a2,1
800001e0:	40d612b7          	lui	t0,0x40d61
800001e4:	12ad                	addi	t0,t0,-21 # 40d60feb <_start-0x3f29f015>
800001e6:	4a81                	li	s5,0
800001e8:	e40c7a97          	auipc	s5,0xe40c7
800001ec:	0001                	nop
800001ee:	0245b133          	mulhu	sp,a1,tp
800001f2:	01420033          	add	zero,tp,s4
800001f6:	039cac33          	mulhsu	s8,s9,s9
800001fa:	02b6c733          	div	a4,a3,a1
800001fe:	031fda33          	divu	s4,t6,a7
80000202:	027bc733          	div	a4,s7,t2
80000206:	9fa40413          	addi	s0,s0,-1542
8000020a:	00d607b3          	add	a5,a2,a3
8000020e:	02c69933          	mulh	s2,a3,a2
80000212:	4abd                	li	s5,15
80000214:	717d                	addi	sp,sp,-16
80000216:	4265                	li	tp,25
80000218:	1d7d                	addi	s10,s10,-1
8000021a:	83597797          	auipc	a5,0x83597
8000021e:	03cd3b33          	mulhu	s6,s10,t3
80000222:	02ddca33          	div	s4,s11,a3
80000226:	6945                	lui	s2,0x11
80000228:	03ba02b3          	mul	t0,s4,s11
8000022c:	8aaa                	mv	s5,a0
8000022e:	02d9ba33          	mulhu	s4,s3,a3
80000232:	7b810893          	addi	a7,sp,1976 # 5228e966 <_start-0x2dd7169a>
80000236:	03951533          	mulh	a0,a0,s9
8000023a:	1488                	addi	a0,sp,608
8000023c:	037d0eb3          	mul	t4,s10,s7
80000240:	4f05                	li	t5,1
80000242:	4b81                	li	s7,0
80000244:	4b01                	li	s6,0
80000246:	69a758b7          	lui	a7,0x69a75
8000024a:	f9088893          	addi	a7,a7,-112 # 69a74f90 <_start-0x1658b070>
8000024e:	7ecf0eb7          	lui	t4,0x7ecf0
80000252:	5fae8e93          	addi	t4,t4,1530 # 7ecf05fa <_start-0x130fa06>
80000256:	4185                	li	gp,1
80000258:	4e01                	li	t3,0
8000025a:	4c01                	li	s8,0
8000025c:	4601                	li	a2,0
8000025e:	156a2fb7          	lui	t6,0x156a2
80000262:	9b1f8f93          	addi	t6,t6,-1615 # 156a19b1 <_start-0x6a95e64f>
80000266:	50688c13          	addi	s8,a7,1286
8000026a:	02f538b3          	mulhu	a7,a0,a5
8000026e:	415e8933          	sub	s2,t4,s5
80000272:	0208ebb3          	rem	s7,a7,zero
80000276:	022317b3          	mulh	a5,t1,sp
8000027a:	02781833          	mulh	a6,a6,t2
8000027e:	6115                	addi	sp,sp,288
80000280:	af3e1217          	auipc	tp,0xaf3e1
80000284:	03d257b3          	divu	a5,tp,t4
80000288:	038ae733          	rem	a4,s5,s8
8000028c:	021a1833          	mulh	a6,s4,ra
80000290:	4d01                	li	s10,0
80000292:	40118133          	sub	sp,gp,ra
80000296:	02225233          	divu	tp,tp,sp
8000029a:	8fa6                	mv	t6,s1
8000029c:	8172                	mv	sp,t3
8000029e:	0001                	nop
800002a0:	03dde533          	rem	a0,s11,t4
800002a4:	717d                	addi	sp,sp,-16
800002a6:	8d51                	or	a0,a0,a2
800002a8:	409b5233          	sra	tp,s6,s1
800002ac:	01d51013          	slli	zero,a0,0x1d
800002b0:	1708                	addi	a0,sp,928
800002b2:	0266bf33          	mulhu	t5,a3,t1
800002b6:	4147d033          	sra	zero,a5,s4
800002ba:	0001                	nop
800002bc:	6d3d                	lui	s10,0xf
800002be:	22f17e93          	andi	t4,sp,559
800002c2:	79247a13          	andi	s4,s0,1938
800002c6:	019a                	slli	gp,gp,0x6
800002c8:	3a724793          	xori	a5,tp,935
800002cc:	428d                	li	t0,3
800002ce:	01d4ac33          	slt	s8,s1,t4
800002d2:	01bbbeb3          	sltu	t4,s7,s11
800002d6:	8565                	srai	a0,a0,0x19
800002d8:	0108b9b3          	sltu	s3,a7,a6
800002dc:	8aa6                	mv	s5,s1
800002de:	617d                	addi	sp,sp,496
800002e0:	0209bab3          	mulhu	s5,s3,zero
800002e4:	38673793          	sltiu	a5,a4,902
800002e8:	8fa1                	xor	a5,a5,s0
800002ea:	89a6                	mv	s3,s1
800002ec:	1d88                	addi	a0,sp,752
800002ee:	028360b3          	rem	ra,t1,s0
800002f2:	617d                	addi	sp,sp,496
800002f4:	517d                	li	sp,-1
800002f6:	02bc1133          	mulh	sp,s8,a1
800002fa:	8cf1                	and	s1,s1,a2
800002fc:	62a26a93          	ori	s5,tp,1578
80000300:	8996                	mv	s3,t0
80000302:	0c163013          	sltiu	zero,a2,193
80000306:	006bfc33          	and	s8,s7,t1
8000030a:	c5dcb817          	auipc	a6,0xc5dcb
8000030e:	71e78537          	lui	a0,0x71e78
80000312:	0376bb33          	mulhu	s6,a3,s7
80000316:	03f10033          	mul	zero,sp,t6
8000031a:	6159                	addi	sp,sp,400
8000031c:	80384013          	xori	zero,a6,-2045
80000320:	0034fab3          	and	s5,s1,gp
80000324:	0335b033          	mulhu	zero,a1,s3
80000328:	80ca                	mv	ra,s2
8000032a:	91966e13          	ori	t3,a2,-1767
8000032e:	00a19593          	slli	a1,gp,0xa
80000332:	4089                	li	ra,2
80000334:	00f1a1b3          	slt	gp,gp,a5
80000338:	000d0033          	add	zero,s10,zero
8000033c:	019c                	addi	a5,sp,192
8000033e:	83b3e793          	ori	a5,t2,-1989
80000342:	02a83cb3          	mulhu	s9,a6,a0
80000346:	014b75b3          	and	a1,s6,s4
8000034a:	00ea7a33          	and	s4,s4,a4
8000034e:	02e849b3          	div	s3,a6,a4
80000352:	038abab3          	mulhu	s5,s5,s8
80000356:	11224c13          	xori	s8,tp,274
8000035a:	00d0c933          	xor	s2,ra,a3
8000035e:	03a4acb3          	mulhsu	s9,s1,s10
80000362:	02c09633          	mulh	a2,ra,a2
80000366:	019ab7b3          	sltu	a5,s5,s9
8000036a:	997d                	andi	a0,a0,-1
8000036c:	0001                	nop
8000036e:	855d                	srai	a0,a0,0x17
80000370:	03889133          	mulh	sp,a7,s8
80000374:	03cf4ab3          	div	s5,t5,t3
80000378:	401bd893          	srai	a7,s7,0x1
8000037c:	0241aab3          	mulhsu	s5,gp,tp
80000380:	0001                	nop
80000382:	8519                	srai	a0,a0,0x6
80000384:	0001                	nop
80000386:	615d                	addi	sp,sp,432
80000388:	e8886293          	ori	t0,a6,-376
8000038c:	008dd113          	srli	sp,s11,0x8
80000390:	1090                	addi	a2,sp,96
80000392:	40505233          	sra	tp,zero,t0
80000396:	6f51                	lui	t5,0x14
80000398:	84cd                	srai	s1,s1,0x13
8000039a:	0c0c                	addi	a1,sp,528
8000039c:	00c95993          	srli	s3,s2,0xc
800003a0:	ee036093          	ori	ra,t1,-288
800003a4:	e41c7f37          	lui	t5,0xe41c7
800003a8:	8d31                	xor	a0,a0,a2
800003aa:	dcdab013          	sltiu	zero,s5,-563
800003ae:	000c7c33          	and	s8,s8,zero
800003b2:	717d                	addi	sp,sp,-16
800003b4:	0001                	nop
800003b6:	0811                	addi	a6,a6,4 # 45dcb30e <_start-0x3a234cf2>
800003b8:	00df4033          	xor	zero,t5,a3
800003bc:	00d24033          	xor	zero,tp,a3
800003c0:	10610293          	addi	t0,sp,262
800003c4:	8d29                	xor	a0,a0,a0
800003c6:	dfa78913          	addi	s2,a5,-518 # 3597014 <_start-0x7ca68fec>
800003ca:	00b801b3          	add	gp,a6,a1
800003ce:	dd0bb313          	sltiu	t1,s7,-560
800003d2:	a1002c93          	slti	s9,zero,-1520
800003d6:	039615b3          	mulh	a1,a2,s9
800003da:	01e41c33          	sll	s8,s0,t5
800003de:	90ce                	add	ra,ra,s3
800003e0:	6ca9ad13          	slti	s10,s3,1738
800003e4:	402287b3          	sub	a5,t0,sp
800003e8:	9de60093          	addi	ra,a2,-1570 # 7aa11b9a <_start-0x55ee466>
800003ec:	1e7d                	addi	t3,t3,-1 # 1cfff <_start-0x7ffe3001>
800003ee:	008c                	addi	a1,sp,64
800003f0:	02811e33          	mulh	t3,sp,s0
800003f4:	997d                	andi	a0,a0,-1
800003f6:	6199                	lui	gp,0x6
800003f8:	0001                	nop
800003fa:	01ae9013          	slli	zero,t4,0x1a
800003fe:	44092713          	slti	a4,s2,1088
80000402:	01b810b3          	sll	ra,a6,s11
80000406:	0001                	nop
80000408:	03175133          	divu	sp,a4,a7
8000040c:	00c60eb3          	add	t4,a2,a2
80000410:	0187beb3          	sltu	t4,a5,s8
80000414:	00e91733          	sll	a4,s2,a4
80000418:	01757033          	and	zero,a0,s7
8000041c:	8e6d                	and	a2,a2,a1
8000041e:	5efd                	li	t4,-1
80000420:	0d9c                	addi	a5,sp,720
80000422:	0388e733          	rem	a4,a7,s8
80000426:	69347193          	andi	gp,s0,1683
8000042a:	8ce5                	and	s1,s1,s1
8000042c:	01f6b233          	sltu	tp,a3,t6
80000430:	00a15c93          	srli	s9,sp,0xa
80000434:	011051b3          	srl	gp,zero,a7
80000438:	017f2033          	slt	zero,t5,s7
8000043c:	40c4d033          	sra	zero,s1,a2
80000440:	40f65793          	srai	a5,a2,0xf
80000444:	9c7d8013          	addi	zero,s11,-1593
80000448:	866c0193          	addi	gp,s8,-1946
8000044c:	401f8f33          	sub	t5,t6,ra
80000450:	4009d7b3          	sra	a5,s3,zero
80000454:	01a05e13          	srli	t3,zero,0x1a
80000458:	03fcd233          	divu	tp,s9,t6
8000045c:	8141                	srli	a0,a0,0x10
8000045e:	5477f237          	lui	tp,0x5477f
80000462:	4033d013          	srai	zero,t2,0x3
80000466:	01579093          	slli	ra,a5,0x15
8000046a:	028cc233          	div	tp,s9,s0
8000046e:	67a1                	lui	a5,0x8
80000470:	1bfd                	addi	s7,s7,-1
80000472:	01bbb633          	sltu	a2,s7,s11
80000476:	04bc0817          	auipc	a6,0x4bc0
8000047a:	02844533          	div	a0,s0,s0
8000047e:	02aa29b3          	mulhsu	s3,s4,a0
80000482:	0001                	nop
80000484:	40bc5893          	srai	a7,s8,0xb
80000488:	8c61                	and	s0,s0,s0
8000048a:	0388                	addi	a0,sp,448
8000048c:	016c4bb3          	xor	s7,s8,s6
80000490:	0368c033          	div	zero,a7,s6
80000494:	011c70b3          	and	ra,s8,a7
80000498:	00735cb3          	srl	s9,t1,t2
8000049c:	004b79b3          	and	s3,s6,tp
800004a0:	87d2                	mv	a5,s4
800004a2:	8a4d                	andi	a2,a2,19
800004a4:	9962                	add	s2,s2,s8
800004a6:	400adfb3          	sra	t6,s5,zero
800004aa:	0066deb3          	srl	t4,a3,t1
800004ae:	01728733          	add	a4,t0,s7
800004b2:	0171d293          	srli	t0,gp,0x17
800004b6:	41668f33          	sub	t5,a3,s6
800004ba:	8d4d                	or	a0,a0,a1
800004bc:	025e2eb3          	mulhsu	t4,t3,t0
800004c0:	997d                	andi	a0,a0,-1
800004c2:	0148e033          	or	zero,a7,s4
800004c6:	0001                	nop
800004c8:	a4239a97          	auipc	s5,0xa4239
800004cc:	01330733          	add	a4,t1,s3
800004d0:	24107d13          	andi	s10,zero,577
800004d4:	032982b3          	mul	t0,s3,s2
800004d8:	0d75                	addi	s10,s10,29 # f01d <_start-0x7fff0fe3>
800004da:	c14c7f13          	andi	t5,s8,-1004
800004de:	1988                	addi	a0,sp,240
800004e0:	9d4e                	add	s10,s10,s3
800004e2:	8d71                	and	a0,a0,a2
800004e4:	02b905b3          	mul	a1,s2,a1
800004e8:	69766593          	ori	a1,a2,1687
800004ec:	8a0d                	andi	a2,a2,3
800004ee:	03805cb3          	divu	s9,zero,s8
800004f2:	011079b3          	and	s3,zero,a7
800004f6:	14256513          	ori	a0,a0,322
800004fa:	0001                	nop
800004fc:	02632633          	mulhsu	a2,t1,t1
80000500:	405108b3          	sub	a7,sp,t0
80000504:	012ed033          	srl	zero,t4,s2
80000508:	00d79ab3          	sll	s5,a5,a3
8000050c:	997d                	andi	a0,a0,-1
8000050e:	012468b3          	or	a7,s0,s2
80000512:	027a0e33          	mul	t3,s4,t2
80000516:	002758b3          	srl	a7,a4,sp
8000051a:	0234ba33          	mulhu	s4,s1,gp
8000051e:	004e6a33          	or	s4,t3,tp
80000522:	8e2d                	xor	a2,a2,a1
80000524:	00a2a333          	slt	t1,t0,a0
80000528:	01bf5b13          	srli	s6,t5,0x1b
8000052c:	8519                	srai	a0,a0,0x6
8000052e:	02add233          	divu	tp,s11,a0
80000532:	00cf9213          	slli	tp,t6,0xc
80000536:	41920eb3          	sub	t4,tp,s9
8000053a:	005d5e13          	srli	t3,s10,0x5
8000053e:	031c45b3          	div	a1,s8,a7
80000542:	41175013          	srai	zero,a4,0x11
80000546:	015ca0b3          	slt	ra,s9,s5
8000054a:	02cc51b3          	divu	gp,s8,a2
8000054e:	8271                	srli	a2,a2,0x1c
80000550:	007e3933          	sltu	s2,t3,t2
80000554:	035f51b3          	divu	gp,t5,s5
80000558:	997d                	andi	a0,a0,-1
8000055a:	0166ca33          	xor	s4,a3,s6
8000055e:	0559                	addi	a0,a0,22 # 71e78016 <_start-0xe187fea>
80000560:	0442                	slli	s0,s0,0x10
80000562:	00a32333          	slt	t1,t1,a0
80000566:	00666e33          	or	t3,a2,t1
8000056a:	7b050013          	addi	zero,a0,1968
8000056e:	00983533          	sltu	a0,a6,s1
80000572:	027e3fb3          	mulhu	t6,t3,t2
80000576:	0355b333          	mulhu	t1,a1,s5
8000057a:	0c08                	addi	a0,sp,528
8000057c:	00ab1033          	sll	zero,s6,a0
80000580:	003fde93          	srli	t4,t6,0x3
80000584:	717d                	addi	sp,sp,-16
80000586:	8d0a                	mv	s10,sp
80000588:	8d49                	or	a0,a0,a0
8000058a:	2e7eb9b7          	lui	s3,0x2e7eb
8000058e:	0313aa13          	slti	s4,t2,49
80000592:	02bdccb3          	div	s9,s11,a1
80000596:	997d                	andi	a0,a0,-1
80000598:	02bb6b33          	rem	s6,s6,a1
8000059c:	00f67f33          	and	t5,a2,a5
800005a0:	0001                	nop
800005a2:	0735                	addi	a4,a4,13
800005a4:	00c59733          	sll	a4,a1,a2
800005a8:	01b0d713          	srli	a4,ra,0x1b
800005ac:	04f5                	addi	s1,s1,29 # 8000001d <STACK+0x8ffb538d>
800005ae:	717d                	addi	sp,sp,-16
800005b0:	418edf33          	sra	t5,t4,s8
800005b4:	0001                	nop
800005b6:	8149                	srli	a0,a0,0x12
800005b8:	f3f18117          	auipc	sp,0xf3f18
800005bc:	40370033          	sub	zero,a4,gp
800005c0:	007529b3          	slt	s3,a0,t2
800005c4:	00a367b3          	or	a5,t1,a0
800005c8:	3913b917          	auipc	s2,0x3913b
800005cc:	001d2033          	slt	zero,s10,ra
800005d0:	8c31                	xor	s0,s0,a2
800005d2:	009a02b3          	add	t0,s4,s1
800005d6:	01903933          	snez	s2,s9
800005da:	01f929b3          	slt	s3,s2,t6
800005de:	00149313          	slli	t1,s1,0x1
800005e2:	02fa                	slli	t0,t0,0x1e
800005e4:	8e49                	or	a2,a2,a0
800005e6:	8d71                	and	a0,a0,a2
800005e8:	03de3033          	mulhu	zero,t3,t4
800005ec:	80f1                	srli	s1,s1,0x1c
800005ee:	bbf0fe93          	andi	t4,ra,-1089
800005f2:	40208ab3          	sub	s5,ra,sp
800005f6:	00f31b13          	slli	s6,t1,0xf
800005fa:	0378b033          	mulhu	zero,a7,s7
800005fe:	80ea7493          	andi	s1,s4,-2034
80000602:	91fa                	add	gp,gp,t5
80000604:	02a17017          	auipc	zero,0x2a17
80000608:	02fb6533          	rem	a0,s6,a5
8000060c:	8d51                	or	a0,a0,a2
8000060e:	074a                	slli	a4,a4,0x12
80000610:	0226b033          	mulhu	zero,a3,sp
80000614:	0043de33          	srl	t3,t2,tp
80000618:	717d                	addi	sp,sp,-16
8000061a:	8d35                	xor	a0,a0,a3
8000061c:	03c55a33          	divu	s4,a0,t3
80000620:	8d75                	and	a0,a0,a3
80000622:	9d98b093          	sltiu	ra,a7,-1575
80000626:	8d01                	sub	a0,a0,s0
80000628:	8d1d                	sub	a0,a0,a5
8000062a:	017a89b3          	add	s3,s5,s7
8000062e:	00b144b3          	xor	s1,sp,a1
80000632:	034c21b3          	mulhsu	gp,s8,s4
80000636:	83ad                	srli	a5,a5,0xb
80000638:	0367dcb3          	divu	s9,a5,s6
8000063c:	03100d33          	mul	s10,zero,a7
80000640:	00789a13          	slli	s4,a7,0x7
80000644:	02532433          	mulhsu	s0,t1,t0
80000648:	0001                	nop
8000064a:	01a9ceb3          	xor	t4,s3,s10
8000064e:	026bbf33          	mulhu	t5,s7,t1
80000652:	b3612d17          	auipc	s10,0xb3612
80000656:	00071933          	sll	s2,a4,zero
8000065a:	00c42eb3          	slt	t4,s0,a2
8000065e:	717d                	addi	sp,sp,-16
80000660:	8915                	andi	a0,a0,5
80000662:	8219                	srli	a2,a2,0x6
80000664:	8d35                	xor	a0,a0,a3
80000666:	404d5013          	srai	zero,s10,0x4
8000066a:	8d25                	xor	a0,a0,s1
8000066c:	02042e33          	mulhsu	t3,s0,zero
80000670:	8555                	srai	a0,a0,0x15
80000672:	cfef7013          	andi	zero,t5,-770
80000676:	03dee333          	rem	t1,t4,t4
8000067a:	018b1e93          	slli	t4,s6,0x18
8000067e:	8d31                	xor	a0,a0,a2
80000680:	d9bece93          	xori	t4,t4,-613
80000684:	7ae13797          	auipc	a5,0x7ae13
80000688:	0001                	nop
8000068a:	016cdd13          	srli	s10,s9,0x16
8000068e:	00415093          	srli	ra,sp,0x4
80000692:	0001                	nop
80000694:	4168d613          	srai	a2,a7,0x16
80000698:	5dd9a517          	auipc	a0,0x5dd9a
8000069c:	01a39a93          	slli	s5,t2,0x1a
800006a0:	c9a7f013          	andi	zero,a5,-870
800006a4:	9b7d                	andi	a4,a4,-1
800006a6:	015ba433          	slt	s0,s7,s5
800006aa:	4149d193          	srai	gp,s3,0x14
800006ae:	8dc34713          	xori	a4,t1,-1828
800006b2:	117d                	addi	sp,sp,-1 # 73f185b7 <_start-0xc0e7a49>
800006b4:	02e68533          	mul	a0,a3,a4
800006b8:	00e9d413          	srli	s0,s3,0xe
800006bc:	87ae                	mv	a5,a1
800006be:	33fb3113          	sltiu	sp,s6,831
800006c2:	03020433          	mul	s0,tp,a6
800006c6:	f0d18013          	addi	zero,gp,-243 # 5f0d <_start-0x7fffa0f3>
800006ca:	9fb2                	add	t6,t6,a2
800006cc:	14b30993          	addi	s3,t1,331
800006d0:	0349c433          	div	s0,s3,s4
800006d4:	8d01                	sub	a0,a0,s0
800006d6:	0ffa                	slli	t6,t6,0x1e
800006d8:	025b1d33          	mulh	s10,s6,t0
800006dc:	8d5d                	or	a0,a0,a5
800006de:	8bc5                	andi	a5,a5,17
800006e0:	717d                	addi	sp,sp,-16
800006e2:	013b84b3          	add	s1,s7,s3
800006e6:	00799b93          	slli	s7,s3,0x7
800006ea:	485da037          	lui	zero,0x485da
800006ee:	9d66                	add	s10,s10,s9
800006f0:	00168933          	add	s2,a3,ra
800006f4:	41ec0cb3          	sub	s9,s8,t5
800006f8:	00f82333          	slt	t1,a6,a5
800006fc:	6889                	lui	a7,0x2
800006fe:	41ab5493          	srai	s1,s6,0x1a
80000702:	09112137          	lui	sp,0x9112
80000706:	02b3c133          	div	sp,t2,a1
8000070a:	018faab3          	slt	s5,t6,s8
8000070e:	8125                	srli	a0,a0,0x9
80000710:	4055d033          	sra	zero,a1,t0
80000714:	02d1e9b3          	rem	s3,gp,a3
80000718:	8d31                	xor	a0,a0,a2
8000071a:	577d                	li	a4,-1
8000071c:	02773133          	mulhu	sp,a4,t2
80000720:	41f15f33          	sra	t5,sp,t6
80000724:	9f9a                	add	t6,t6,t1
80000726:	8d01                	sub	a0,a0,s0
80000728:	8d69                	and	a0,a0,a0
8000072a:	8259                	srli	a2,a2,0x16
8000072c:	023ccf33          	div	t5,s9,gp
80000730:	1308                	addi	a0,sp,416
80000732:	003210b3          	sll	ra,tp,gp
80000736:	6efd                	lui	t4,0x1f
80000738:	568f7b93          	andi	s7,t5,1384
8000073c:	717d                	addi	sp,sp,-16
8000073e:	02694033          	div	zero,s2,t1
80000742:	029ab633          	mulhu	a2,s5,s1
80000746:	d910af93          	slti	t6,ra,-623
8000074a:	87b9                	srai	a5,a5,0xe
8000074c:	8911                	andi	a0,a0,4
8000074e:	01b91fb3          	sll	t6,s2,s11
80000752:	1788                	addi	a0,sp,992
80000754:	0124a733          	slt	a4,s1,s2
80000758:	8c89                	sub	s1,s1,a0
8000075a:	03b02cb3          	mulhsu	s9,zero,s11
8000075e:	013d9f93          	slli	t6,s11,0x13
80000762:	54346e93          	ori	t4,s0,1347
80000766:	02800033          	mul	zero,zero,s0
8000076a:	006ceab3          	or	s5,s9,t1
8000076e:	02383033          	mulhu	zero,a6,gp
80000772:	016cc233          	xor	tp,s9,s6
80000776:	40bf0f33          	sub	t5,t5,a1
8000077a:	03b625b3          	mulhsu	a1,a2,s11
8000077e:	038d9733          	mulh	a4,s11,s8
80000782:	012d5c93          	srli	s9,s10,0x12
80000786:	0313c133          	div	sp,t2,a7
8000078a:	01f15033          	srl	zero,sp,t6
8000078e:	8e4d                	or	a2,a2,a1
80000790:	889d                	andi	s1,s1,7
80000792:	01d351b3          	srl	gp,t1,t4
80000796:	009ce433          	or	s0,s9,s1
8000079a:	1bfd                	addi	s7,s7,-1
8000079c:	002a6f33          	or	t5,s4,sp
800007a0:	038fb333          	mulhu	t1,t6,s8
800007a4:	034b48b3          	div	a7,s6,s4
800007a8:	00c6b0b3          	sltu	ra,a3,a2
800007ac:	00c837b3          	sltu	a5,a6,a2
800007b0:	01bfbc33          	sltu	s8,t6,s11
800007b4:	418ddc93          	srai	s9,s11,0x18
800007b8:	df49b317          	auipc	t1,0xdf49b
800007bc:	8f01                	sub	a4,a4,s0
800007be:	997d                	andi	a0,a0,-1
800007c0:	83170b13          	addi	s6,a4,-1999
800007c4:	00c51413          	slli	s0,a0,0xc
800007c8:	18ed8813          	addi	a6,s11,398
800007cc:	00310a33          	add	s4,sp,gp
800007d0:	ff6c3f93          	sltiu	t6,s8,-10
800007d4:	94fbb897          	auipc	a7,0x94fbb
800007d8:	014a1793          	slli	a5,s4,0x14
800007dc:	027731b3          	mulhu	gp,a4,t2
800007e0:	a1f5d037          	lui	zero,0xa1f5d
800007e4:	8d0d                	sub	a0,a0,a1
800007e6:	8065                	srli	s0,s0,0x19
800007e8:	8e7d                	and	a2,a2,a5
800007ea:	01f96033          	or	zero,s2,t6
800007ee:	025c6733          	rem	a4,s8,t0
800007f2:	00109013          	slli	zero,ra,0x1
800007f6:	8c31                	xor	s0,s0,a2
800007f8:	02416bb3          	rem	s7,sp,tp
800007fc:	3edfa313          	slti	t1,t6,1005
80000800:	016beeb3          	or	t4,s7,s6
80000804:	00d55fb3          	srl	t6,a0,a3
80000808:	41f5d513          	srai	a0,a1,0x1f
8000080c:	41758b33          	sub	s6,a1,s7
80000810:	6d77e713          	ori	a4,a5,1751
80000814:	8205                	srli	a2,a2,0x1
80000816:	017d6033          	or	zero,s10,s7
8000081a:	8515                	srai	a0,a0,0x5
8000081c:	41698d33          	sub	s10,s3,s6
80000820:	01138033          	add	zero,t2,a7
80000824:	0001                	nop
80000826:	90b6                	add	ra,ra,a3
80000828:	5b2e8d13          	addi	s10,t4,1458 # 1f5b2 <_start-0x7ffe0a4e>
8000082c:	610d                	addi	sp,sp,160
8000082e:	54fd                	li	s1,-1
80000830:	40768d33          	sub	s10,a3,t2
80000834:	6099                	lui	ra,0x6
80000836:	015ce4b3          	or	s1,s9,s5
8000083a:	af10a293          	slti	t0,ra,-1295
8000083e:	400edbb3          	sra	s7,t4,zero
80000842:	1d90                	addi	a2,sp,752
80000844:	0001                	nop
80000846:	0099da13          	srli	s4,s3,0x9
8000084a:	0001                	nop
8000084c:	8c49                	or	s0,s0,a0
8000084e:	9f16                	add	t5,t5,t0
80000850:	018d5033          	srl	zero,s10,s8
80000854:	997d                	andi	a0,a0,-1
80000856:	8f89                	sub	a5,a5,a0
80000858:	b5c50d17          	auipc	s10,0xb5c50
8000085c:	f228a793          	slti	a5,a7,-222
80000860:	00099c93          	slli	s9,s3,0x0
80000864:	031000b3          	mul	ra,zero,a7
80000868:	4099d7b3          	sra	a5,s3,s1
8000086c:	5b7d                	li	s6,-1
8000086e:	006e9c13          	slli	s8,t4,0x6
80000872:	01ca0c33          	add	s8,s4,t3
80000876:	6121                	addi	sp,sp,64
80000878:	8139                	srli	a0,a0,0xe
8000087a:	909e                	add	ra,ra,t2
8000087c:	8d49                	or	a0,a0,a0
8000087e:	035025b3          	mulhsu	a1,zero,s5
80000882:	8c2a                	mv	s8,a0
80000884:	336b7717          	auipc	a4,0x336b7
80000888:	035e8a33          	mul	s4,t4,s5
8000088c:	03063033          	mulhu	zero,a2,a6
80000890:	6179                	addi	sp,sp,464
80000892:	41add493          	srai	s1,s11,0x1a
80000896:	0001                	nop
80000898:	01ce                	slli	gp,gp,0x13
8000089a:	0169fc33          	and	s8,s3,s6
8000089e:	87ae                	mv	a5,a1
800008a0:	81ba                	mv	gp,a4
800008a2:	8125                	srli	a0,a0,0x9
800008a4:	0385d5b3          	divu	a1,a1,s8
800008a8:	0486                	slli	s1,s1,0x1
800008aa:	033a1cb3          	mulh	s9,s4,s3
800008ae:	028515b3          	mulh	a1,a0,s0
800008b2:	62a0e713          	ori	a4,ra,1578
800008b6:	41685733          	sra	a4,a6,s6
800008ba:	003f7433          	and	s0,t5,gp
800008be:	032dae33          	mulhsu	t3,s11,s2
800008c2:	00c9                	addi	ra,ra,18 # 6012 <_start-0x7fff9fee>
800008c4:	071c                	addi	a5,sp,896
800008c6:	84fd                	srai	s1,s1,0x1f
800008c8:	8a7d                	andi	a2,a2,31
800008ca:	13b859b7          	lui	s3,0x13b85
800008ce:	8d61                	and	a0,a0,s0
800008d0:	00949593          	slli	a1,s1,0x9
800008d4:	8925                	andi	a0,a0,9
800008d6:	1557e613          	ori	a2,a5,341
800008da:	0941                	addi	s2,s2,16 # b913b5d8 <_end+0x391392dc>
800008dc:	0116ea33          	or	s4,a3,a7
800008e0:	003a5f93          	srli	t6,s4,0x3
800008e4:	325bcf93          	xori	t6,s7,805
800008e8:	40015b93          	srai	s7,sp,0x0
800008ec:	00302cb3          	sgtz	s9,gp
800008f0:	47a5                	li	a5,9
800008f2:	0001                	nop
800008f4:	997d                	andi	a0,a0,-1
800008f6:	717d                	addi	sp,sp,-16
800008f8:	010e                	slli	sp,sp,0x3
800008fa:	814d                	srli	a0,a0,0x13
800008fc:	01be02b3          	add	t0,t3,s11
80000900:	41b258b3          	sra	a7,tp,s11
80000904:	8d01                	sub	a0,a0,s0
80000906:	0f66                	slli	t5,t5,0x19
80000908:	416cd633          	sra	a2,s9,s6
8000090c:	035e99b3          	mulh	s3,t4,s5
80000910:	8549                	srai	a0,a0,0x12
80000912:	8df5                	and	a1,a1,a3
80000914:	dbb60193          	addi	gp,a2,-581
80000918:	669b8c37          	lui	s8,0x669b8
8000091c:	717d                	addi	sp,sp,-16
8000091e:	dd2bbe13          	sltiu	t3,s7,-558
80000922:	6145                	addi	sp,sp,48
80000924:	01f47f33          	and	t5,s0,t6
80000928:	0218ba33          	mulhu	s4,a7,ra
8000092c:	02289933          	mulh	s2,a7,sp
80000930:	0f46                	slli	t5,t5,0x11
80000932:	0f6fb913          	sltiu	s2,t6,246
80000936:	84e9                	srai	s1,s1,0x1a
80000938:	01bca4b3          	slt	s1,s9,s11
8000093c:	2483b017          	auipc	zero,0x2483b
80000940:	137d                	addi	t1,t1,-1 # 5f49b7b7 <_start-0x20b64849>
80000942:	0688                	addi	a0,sp,832
80000944:	01e63033          	sltu	zero,a2,t5
80000948:	03753cb3          	mulhu	s9,a0,s7
8000094c:	60d1                	lui	ra,0x14
8000094e:	0001                	nop
80000950:	03ca5b33          	divu	s6,s4,t3
80000954:	0094d593          	srli	a1,s1,0x9
80000958:	997d                	andi	a0,a0,-1
8000095a:	997d                	andi	a0,a0,-1
8000095c:	2b653137          	lui	sp,0x2b653
80000960:	02c49d33          	mulh	s10,s1,a2
80000964:	0688                	addi	a0,sp,832
80000966:	19fd                	addi	s3,s3,-1 # 13b84fff <_start-0x6c47b001>
80000968:	08ea                	slli	a7,a7,0x1a
8000096a:	00489193          	slli	gp,a7,0x4
8000096e:	037c0f33          	mul	t5,s8,s7
80000972:	8505                	srai	a0,a0,0x1
80000974:	5444b113          	sltiu	sp,s1,1348
80000978:	417557b3          	sra	a5,a0,s7
8000097c:	9b7d                	andi	a4,a4,-1
8000097e:	02d72033          	mulhsu	zero,a4,a3
80000982:	8f8d                	sub	a5,a5,a1
80000984:	5cc58b13          	addi	s6,a1,1484
80000988:	0e88                	addi	a0,sp,848
8000098a:	8d25                	xor	a0,a0,s1
8000098c:	031aef33          	rem	t5,s5,a7
80000990:	02e39e33          	mulh	t3,t2,a4
80000994:	1efd                	addi	t4,t4,-1
80000996:	8c15                	sub	s0,s0,a3
80000998:	005a59b3          	srl	s3,s4,t0
8000099c:	0001                	nop
8000099e:	017d6433          	or	s0,s10,s7
800009a2:	00207433          	and	s0,zero,sp
800009a6:	017be4b3          	or	s1,s7,s7
800009aa:	0130b233          	sltu	tp,ra,s3
800009ae:	6975                	lui	s2,0x1d
800009b0:	02c7e633          	rem	a2,a5,a2
800009b4:	41e1deb3          	sra	t4,gp,t5
800009b8:	0001                	nop
800009ba:	02c6c033          	div	zero,a3,a2
800009be:	0001                	nop
800009c0:	01e0beb3          	sltu	t4,ra,t5
800009c4:	023bd833          	divu	a6,s7,gp
800009c8:	fdd43913          	sltiu	s2,s0,-35
800009cc:	8360f093          	andi	ra,ra,-1994
800009d0:	209b01b7          	lui	gp,0x209b0
800009d4:	83fd                	srli	a5,a5,0x1f
800009d6:	01a35333          	srl	t1,t1,s10
800009da:	8211                	srli	a2,a2,0x4
800009dc:	40ad5f93          	srai	t6,s10,0xa
800009e0:	003b9593          	slli	a1,s7,0x3
800009e4:	0001                	nop
800009e6:	9a3e                	add	s4,s4,a5
800009e8:	02e3d9b3          	divu	s3,t2,a4
800009ec:	0218be33          	mulhu	t3,a7,ra
800009f0:	afbd6b93          	ori	s7,s10,-1285
800009f4:	80dd                	srli	s1,s1,0x17
800009f6:	8529                	srai	a0,a0,0xa
800009f8:	02ca9cb3          	mulh	s9,s5,a2
800009fc:	fa8fa513          	slti	a0,t6,-88
80000a00:	0151aab3          	slt	s5,gp,s5
80000a04:	bb1a89b7          	lui	s3,0xbb1a8
80000a08:	8175                	srli	a0,a0,0x1d
80000a0a:	f5916813          	ori	a6,sp,-167
80000a0e:	015c7033          	and	zero,s8,s5
80000a12:	4a29b513          	sltiu	a0,s3,1186
80000a16:	b4012b13          	slti	s6,sp,-1216
80000a1a:	6f769ab7          	lui	s5,0x6f769
80000a1e:	41b2dd33          	sra	s10,t0,s11
80000a22:	02006133          	rem	sp,zero,zero
80000a26:	8d75                	and	a0,a0,a3
80000a28:	00c2d033          	srl	zero,t0,a2
80000a2c:	0309                	addi	t1,t1,2
80000a2e:	84f5                	srai	s1,s1,0x1d
80000a30:	4f81                	li	t6,0
80000a32:	4f05                	li	t5,1
80000a34:	4081                	li	ra,0
80000a36:	127d58b7          	lui	a7,0x127d5
80000a3a:	0e588893          	addi	a7,a7,229 # 127d50e5 <_start-0x6d82af1b>
80000a3e:	4e85                	li	t4,1
80000a40:	7e36ce37          	lui	t3,0x7e36c
80000a44:	ab3e0e13          	addi	t3,t3,-1357 # 7e36bab3 <_start-0x1c9454d>
80000a48:	4601                	li	a2,0
80000a4a:	4c05                	li	s8,1
80000a4c:	074967b7          	lui	a5,0x7496
80000a50:	53f78793          	addi	a5,a5,1343 # 749653f <_start-0x78b69ac1>
80000a54:	07b41ab7          	lui	s5,0x7b41
80000a58:	dbfa8a93          	addi	s5,s5,-577 # 7b40dbf <_start-0x784bf241>
80000a5c:	717d                	addi	sp,sp,-16
80000a5e:	01c68933          	add	s2,a3,t3
80000a62:	6149                	addi	sp,sp,144
80000a64:	87f2                	mv	a5,t3
80000a66:	01ba8b33          	add	s6,s5,s11
80000a6a:	97231b37          	lui	s6,0x97231
80000a6e:	40a5                	li	ra,9
80000a70:	0337a7b3          	mulhsu	a5,a5,s3
80000a74:	1804                	addi	s1,sp,48
80000a76:	a5c90013          	addi	zero,s2,-1444 # 1ca5c <_start-0x7ffe35a4>
80000a7a:	00ac0033          	add	zero,s8,a0
80000a7e:	6129                	addi	sp,sp,192
80000a80:	88f2                	mv	a7,t3
80000a82:	f7720c93          	addi	s9,tp,-137 # 5477ef77 <_start-0x2b881089>
80000a86:	527d                	li	tp,-1
80000a88:	40c9                	li	ra,18
80000a8a:	04ea                	slli	s1,s1,0x1a
80000a8c:	2989ec93          	ori	s9,s3,664
80000a90:	03098e33          	mul	t3,s3,a6
80000a94:	6871                	lui	a6,0x1c
80000a96:	99d83b93          	sltiu	s7,a6,-1635
80000a9a:	3f1fa113          	slti	sp,t6,1009
80000a9e:	8d51                	or	a0,a0,a2
80000aa0:	028be033          	rem	zero,s7,s0
80000aa4:	00da                	slli	ra,ra,0x16
80000aa6:	0080c233          	xor	tp,ra,s0
80000aaa:	268e7a13          	andi	s4,t3,616
80000aae:	560fdb17          	auipc	s6,0x560fd
80000ab2:	db9c0893          	addi	a7,s8,-583 # 669b7db9 <_start-0x19648247>
80000ab6:	6089                	lui	ra,0x2
80000ab8:	0215a633          	mulhsu	a2,a1,ra
80000abc:	93ed4eb7          	lui	t4,0x93ed4
80000ac0:	03e50bb3          	mul	s7,a0,t5
80000ac4:	832a                	mv	t1,a0
80000ac6:	826d                	srli	a2,a2,0x1b
80000ac8:	01d32133          	slt	sp,t1,t4
80000acc:	98ddf213          	andi	tp,s11,-1651
80000ad0:	fc8afc13          	andi	s8,s5,-56
80000ad4:	01189e33          	sll	t3,a7,a7
80000ad8:	1c1c2013          	slti	zero,s8,449
80000adc:	3e3e0113          	addi	sp,t3,995
80000ae0:	00f39033          	sll	zero,t2,a5
80000ae4:	8cb6                	mv	s9,a3
80000ae6:	02a46a33          	rem	s4,s0,a0
80000aea:	0551                	addi	a0,a0,20 # ddd9a6ac <_end+0x5dd983b0>
80000aec:	00ae0fb3          	add	t6,t3,a0
80000af0:	00897eb3          	and	t4,s2,s0
80000af4:	0001                	nop
80000af6:	194352b7          	lui	t0,0x19435
80000afa:	0057d013          	srli	zero,a5,0x5
80000afe:	00438033          	add	zero,t2,tp
80000b02:	05e17f93          	andi	t6,sp,94
80000b06:	01e49593          	slli	a1,s1,0x1e
80000b0a:	89f0f137          	lui	sp,0x89f0f
80000b0e:	01791533          	sll	a0,s2,s7
80000b12:	813d                	srli	a0,a0,0xf
80000b14:	60a9                	lui	ra,0xa
80000b16:	301971b7          	lui	gp,0x30197
80000b1a:	03770f33          	mul	t5,a4,s7
80000b1e:	0147bf33          	sltu	t5,a5,s4
80000b22:	8519                	srai	a0,a0,0x6
80000b24:	0145a433          	slt	s0,a1,s4
80000b28:	40e05bb3          	sra	s7,zero,a4
80000b2c:	225c3f13          	sltiu	t5,s8,549
80000b30:	feb26613          	ori	a2,tp,-21
80000b34:	40278233          	sub	tp,a5,sp
80000b38:	01329033          	sll	zero,t0,s3
80000b3c:	857f7013          	andi	zero,t5,-1961
80000b40:	8961                	andi	a0,a0,24
80000b42:	02e26433          	rem	s0,tp,a4
80000b46:	d7a32193          	slti	gp,t1,-646
80000b4a:	0001                	nop
80000b4c:	8659                	srai	a2,a2,0x16
80000b4e:	0001                	nop
80000b50:	01b728b3          	slt	a7,a4,s11
80000b54:	8d3d                	xor	a0,a0,a5
80000b56:	7479e713          	ori	a4,s3,1863
80000b5a:	f2d1ab37          	lui	s6,0xf2d1a
80000b5e:	01265eb3          	srl	t4,a2,s2
80000b62:	005d4833          	xor	a6,s10,t0
80000b66:	0014b4b3          	sltu	s1,s1,ra
80000b6a:	a49eb413          	sltiu	s0,t4,-1463
80000b6e:	017f9013          	slli	zero,t6,0x17
80000b72:	02d560b3          	rem	ra,a0,a3
80000b76:	0038db93          	srli	s7,a7,0x3
80000b7a:	03689033          	mulh	zero,a7,s6
80000b7e:	006fb9b3          	sltu	s3,t6,t1
80000b82:	02d2beb3          	mulhu	t4,t0,a3
80000b86:	038865b3          	rem	a1,a6,s8
80000b8a:	01c6c333          	xor	t1,a3,t3
80000b8e:	823d                	srli	a2,a2,0xf
80000b90:	8e6d                	and	a2,a2,a1
80000b92:	6341                	lui	t1,0x10
80000b94:	00289d33          	sll	s10,a7,sp
80000b98:	00ef5a33          	srl	s4,t5,a4
80000b9c:	9ece                	add	t4,t4,s3
80000b9e:	1e08                	addi	a0,sp,816
80000ba0:	00163c33          	sltu	s8,a2,ra
80000ba4:	02756b33          	rem	s6,a0,t2
80000ba8:	028fab33          	mulhsu	s6,t6,s0
80000bac:	15b9c593          	xori	a1,s3,347
80000bb0:	8d69                	and	a0,a0,a0
80000bb2:	8e0d                	sub	a2,a2,a1
80000bb4:	e7d66413          	ori	s0,a2,-387
80000bb8:	f5b70a13          	addi	s4,a4,-165 # b36b77df <_end+0x336b54e3>
80000bbc:	84b2                	mv	s1,a2
80000bbe:	03799733          	mulh	a4,s3,s7
80000bc2:	00781cb3          	sll	s9,a6,t2
80000bc6:	0265ed33          	rem	s10,a1,t1
80000bca:	4801                	li	a6,0
80000bcc:	00484a33          	xor	s4,a6,tp
80000bd0:	00515ab3          	srl	s5,sp,t0
80000bd4:	02878033          	mul	zero,a5,s0
80000bd8:	400c5913          	srai	s2,s8,0x0
80000bdc:	01725033          	srl	zero,tp,s7
80000be0:	03785133          	divu	sp,a6,s7
80000be4:	8529                	srai	a0,a0,0xa
80000be6:	020b9633          	mulh	a2,s7,zero
80000bea:	00b738b3          	sltu	a7,a4,a1
80000bee:	039b8d33          	mul	s10,s7,s9
80000bf2:	014b9013          	slli	zero,s7,0x14
80000bf6:	177d                	addi	a4,a4,-1
80000bf8:	8d79                	and	a0,a0,a4
80000bfa:	8a7fab93          	slti	s7,t6,-1881
80000bfe:	855d                	srai	a0,a0,0x17
80000c00:	00510d33          	add	s10,sp,t0
80000c04:	03652833          	mulhsu	a6,a0,s6
80000c08:	03643a33          	mulhu	s4,s0,s6
80000c0c:	024185b3          	mul	a1,gp,tp
80000c10:	98fd                	andi	s1,s1,-1
80000c12:	8042cb13          	xori	s6,t0,-2044
80000c16:	8d25                	xor	a0,a0,s1
80000c18:	00680033          	add	zero,a6,t1
80000c1c:	745d6113          	ori	sp,s10,1861
80000c20:	00c1ac33          	slt	s8,gp,a2
80000c24:	0001                	nop
80000c26:	8119                	srli	a0,a0,0x6
80000c28:	9c92                	add	s9,s9,tp
80000c2a:	8d25                	xor	a0,a0,s1
80000c2c:	8d1d                	sub	a0,a0,a5
80000c2e:	02336f33          	rem	t5,t1,gp
80000c32:	8d69                	and	a0,a0,a0
80000c34:	717d                	addi	sp,sp,-16
80000c36:	bef0af13          	slti	t5,ra,-1041
80000c3a:	8e446093          	ori	ra,s0,-1820
80000c3e:	83f5                	srli	a5,a5,0x1d
80000c40:	677ab013          	sltiu	zero,s5,1655
80000c44:	00ff8733          	add	a4,t6,a5
80000c48:	1f9c                	addi	a5,sp,1008
80000c4a:	ddf53817          	auipc	a6,0xddf53
80000c4e:	03f1a533          	mulhsu	a0,gp,t6
80000c52:	8bb2                	mv	s7,a2
80000c54:	0288                	addi	a0,sp,320
80000c56:	008edeb3          	srl	t4,t4,s0
80000c5a:	9778a813          	slti	a6,a7,-1673
80000c5e:	004dd4b3          	srl	s1,s11,tp
80000c62:	028bb5b3          	mulhu	a1,s7,s0
80000c66:	0308                	addi	a0,sp,384
80000c68:	0f29                	addi	t5,t5,10 # e41c700a <STACK+0xf417c37a>
80000c6a:	0069f033          	and	zero,s3,t1
80000c6e:	01be7eb3          	and	t4,t3,s11
80000c72:	4182df93          	srai	t6,t0,0x18
80000c76:	0808                	addi	a0,sp,16
80000c78:	034068b3          	rem	a7,zero,s4
80000c7c:	03ad6233          	rem	tp,s10,s10
80000c80:	8d46                	mv	s10,a7
80000c82:	808a                	mv	ra,sp
80000c84:	01a2e033          	or	zero,t0,s10
80000c88:	17bdfa13          	andi	s4,s11,379
80000c8c:	8129                	srli	a0,a0,0xa
80000c8e:	879a0b93          	addi	s7,s4,-1927
80000c92:	1e213217          	auipc	tp,0x1e213
80000c96:	80d6                	mv	ra,s5
80000c98:	8e65                	and	a2,a2,s1
80000c9a:	0001                	nop
80000c9c:	925e                	add	tp,tp,s7
80000c9e:	720af593          	andi	a1,s5,1824
80000ca2:	01fadeb3          	srl	t4,s5,t6
80000ca6:	2f0b2213          	slti	tp,s6,752
80000caa:	00a3df13          	srli	t5,t2,0xa
80000cae:	997d                	andi	a0,a0,-1
80000cb0:	00d3af33          	slt	t5,t2,a3
80000cb4:	01ffd613          	srli	a2,t6,0x1f
80000cb8:	9ff2                	add	t6,t6,t3
80000cba:	997d                	andi	a0,a0,-1
80000cbc:	00c2b833          	sltu	a6,t0,a2
80000cc0:	0225e0b3          	rem	ra,a1,sp
80000cc4:	0065b933          	sltu	s2,a1,t1
80000cc8:	002b15b3          	sll	a1,s6,sp
80000ccc:	69d9                	lui	s3,0x16
80000cce:	01a99293          	slli	t0,s3,0x1a
80000cd2:	8c55                	or	s0,s0,a3
80000cd4:	019a8333          	add	t1,s5,s9
80000cd8:	41510633          	sub	a2,sp,s5
80000cdc:	94aa                	add	s1,s1,a0
80000cde:	f0403013          	sltiu	zero,zero,-252
80000ce2:	8fcd                	or	a5,a5,a1
80000ce4:	023bbfb3          	mulhu	t6,s7,gp
80000ce8:	03820033          	mul	zero,tp,s8
80000cec:	03de0633          	mul	a2,t3,t4
80000cf0:	01e51a33          	sll	s4,a0,t5
80000cf4:	8d0d                	sub	a0,a0,a1
80000cf6:	00acaeb3          	slt	t4,s9,a0
80000cfa:	8125                	srli	a0,a0,0x9
80000cfc:	80da7b93          	andi	s7,s4,-2035
80000d00:	8d49                	or	a0,a0,a0
80000d02:	0001                	nop
80000d04:	6165                	addi	sp,sp,112
80000d06:	537d                	li	t1,-1
80000d08:	0001                	nop
80000d0a:	00189013          	slli	zero,a7,0x1
80000d0e:	1afd                	addi	s5,s5,-1
80000d10:	cf3fc893          	xori	a7,t6,-781
80000d14:	3bcfc317          	auipc	t1,0x3bcfc
80000d18:	40d95c33          	sra	s8,s2,a3
80000d1c:	0508                	addi	a0,sp,640
80000d1e:	8fa1                	xor	a5,a5,s0
80000d20:	01a90013          	addi	zero,s2,26
80000d24:	02de4133          	div	sp,t3,a3
80000d28:	59f57d13          	andi	s10,a0,1439
80000d2c:	00799d33          	sll	s10,s3,t2
80000d30:	01531a13          	slli	s4,t1,0x15
80000d34:	67b3cc13          	xori	s8,t2,1659
80000d38:	1d3ad137          	lui	sp,0x1d3ad
80000d3c:	997d                	andi	a0,a0,-1
80000d3e:	8d49                	or	a0,a0,a0
80000d40:	6d29                	lui	s10,0xa
80000d42:	0a1c                	addi	a5,sp,272
80000d44:	8d4d                	or	a0,a0,a1
80000d46:	0001                	nop
80000d48:	57a797b7          	lui	a5,0x57a79
80000d4c:	4f93b993          	sltiu	s3,t2,1273
80000d50:	0001                	nop
80000d52:	8105                	srli	a0,a0,0x1
80000d54:	0124b833          	sltu	a6,s1,s2
80000d58:	bed1ac93          	slti	s9,gp,-1043
80000d5c:	00312733          	slt	a4,sp,gp
80000d60:	1c3a0bb7          	lui	s7,0x1c3a0
80000d64:	6e51                	lui	t3,0x14
80000d66:	8d65                	and	a0,a0,s1
80000d68:	997d                	andi	a0,a0,-1
80000d6a:	8d65                	and	a0,a0,s1
80000d6c:	02ebdbb3          	divu	s7,s7,a4
80000d70:	8929                	andi	a0,a0,10
80000d72:	082a                	slli	a6,a6,0xa
80000d74:	02760cb3          	mul	s9,a2,t2
80000d78:	8d15                	sub	a0,a0,a3
80000d7a:	03ca9b33          	mulh	s6,s5,t3
80000d7e:	a3346017          	auipc	zero,0xa3346
80000d82:	0257e333          	rem	t1,a5,t0
80000d86:	4aa12913          	slti	s2,sp,1194
80000d8a:	02203233          	mulhu	tp,zero,sp
80000d8e:	01f44033          	xor	zero,s0,t6
80000d92:	0001                	nop
80000d94:	83eb6417          	auipc	s0,0x83eb6
80000d98:	80f9                	srli	s1,s1,0x1e
80000d9a:	8955                	andi	a0,a0,21
80000d9c:	974f2b93          	slti	s7,t5,-1676
80000da0:	035c3433          	mulhu	s0,s8,s5
80000da4:	8d2d                	xor	a0,a0,a1
80000da6:	8185                	srli	a1,a1,0x1
80000da8:	00439813          	slli	a6,t2,0x4
80000dac:	1384                	addi	s1,sp,480
80000dae:	40035f13          	srai	t5,t1,0x0
80000db2:	012e0033          	add	zero,t3,s2
80000db6:	0e25                	addi	t3,t3,9 # 14009 <_start-0x7ffebff7>
80000db8:	411707b3          	sub	a5,a4,a7
80000dbc:	00fade33          	srl	t3,s5,a5
80000dc0:	e9718a13          	addi	s4,gp,-361 # 30196e97 <_start-0x4fe69169>
80000dc4:	8121                	srli	a0,a0,0x8
80000dc6:	54319f37          	lui	t5,0x54319
80000dca:	8e19                	sub	a2,a2,a4
80000dcc:	01c5da13          	srli	s4,a1,0x1c
80000dd0:	00a7f333          	and	t1,a5,a0
80000dd4:	166d4093          	xori	ra,s10,358
80000dd8:	9892                	add	a7,a7,tp
80000dda:	17fd                	addi	a5,a5,-1 # 57a78fff <_start-0x28587001>
80000ddc:	f05e4a37          	lui	s4,0xf05e4
80000de0:	69b1                	lui	s3,0xc
80000de2:	8d4d                	or	a0,a0,a1
80000de4:	0e00                	addi	s0,sp,784
80000de6:	8e49                	or	a2,a2,a0
80000de8:	023d0cb3          	mul	s9,s10,gp
80000dec:	0eec0cb7          	lui	s9,0xeec0
80000df0:	0001                	nop
80000df2:	597d                	li	s2,-1
80000df4:	402a5433          	sra	s0,s4,sp
80000df8:	0001                	nop
80000dfa:	b785ebb7          	lui	s7,0xb785e
80000dfe:	0187af33          	slt	t5,a5,s8
80000e02:	03a15333          	divu	t1,sp,s10
80000e06:	41ac8033          	sub	zero,s9,s10
80000e0a:	01f3e733          	or	a4,t2,t6
80000e0e:	01eb60b3          	or	ra,s6,t5
80000e12:	0d6e                	slli	s10,s10,0x1b
80000e14:	41f888b3          	sub	a7,a7,t6
80000e18:	997a                	add	s2,s2,t5
80000e1a:	25654793          	xori	a5,a0,598
80000e1e:	01879833          	sll	a6,a5,s8
80000e22:	b0af5637          	lui	a2,0xb0af5
80000e26:	9a69fa93          	andi	s5,s3,-1626
80000e2a:	717d                	addi	sp,sp,-16
80000e2c:	02a14333          	div	t1,sp,a0
80000e30:	014c4fb3          	xor	t6,s8,s4
80000e34:	00a1eb33          	or	s6,gp,a0
80000e38:	02b54233          	div	tp,a0,a1
80000e3c:	09753893          	sltiu	a7,a0,151
80000e40:	334a45b7          	lui	a1,0x334a4
80000e44:	03a3e7b3          	rem	a5,t2,s10
80000e48:	aec34793          	xori	a5,t1,-1300
80000e4c:	cfadc193          	xori	gp,s11,-774
80000e50:	0015f033          	and	zero,a1,ra
80000e54:	02109033          	mulh	zero,ra,ra
80000e58:	036bd033          	divu	zero,s7,s6
80000e5c:	00d231b3          	sltu	gp,tp,a3
80000e60:	1d7ce713          	ori	a4,s9,471
80000e64:	0158c1b3          	xor	gp,a7,s5
80000e68:	8d89                	sub	a1,a1,a0
80000e6a:	40f65eb3          	sra	t4,a2,a5
80000e6e:	01fd1f93          	slli	t6,s10,0x1f
80000e72:	05d9                	addi	a1,a1,22 # 334a4016 <_start-0x4cb5bfea>
80000e74:	8d15                	sub	a0,a0,a3
80000e76:	f5aea793          	slti	a5,t4,-166
80000e7a:	01a964b3          	or	s1,s2,s10
80000e7e:	009a8833          	add	a6,s5,s1
80000e82:	30678e37          	lui	t3,0x30678
80000e86:	0001                	nop
80000e88:	0001                	nop
80000e8a:	8d15                	sub	a0,a0,a3
80000e8c:	614d                	addi	sp,sp,176
80000e8e:	01561033          	sll	zero,a2,s5
80000e92:	5c6c0893          	addi	a7,s8,1478
80000e96:	006c48b3          	xor	a7,s8,t1
80000e9a:	02909833          	mulh	a6,ra,s1
80000e9e:	03b69733          	mulh	a4,a3,s11
80000ea2:	03cc8333          	mul	t1,s9,t3
80000ea6:	8965                	andi	a0,a0,25
80000ea8:	0512                	slli	a0,a0,0x4
80000eaa:	8d09                	sub	a0,a0,a0
80000eac:	8e55                	or	a2,a2,a3
80000eae:	8d61                	and	a0,a0,s0
80000eb0:	01e31713          	slli	a4,t1,0x1e
80000eb4:	03ca5333          	divu	t1,s4,t3
80000eb8:	40fbd493          	srai	s1,s7,0xf
80000ebc:	03005533          	divu	a0,zero,a6
80000ec0:	01d74033          	xor	zero,a4,t4
80000ec4:	41ec5c13          	srai	s8,s8,0x1e
80000ec8:	00bb3ab3          	sltu	s5,s6,a1
80000ecc:	10fd                	addi	ra,ra,-1 # 9fff <_start-0x7fff6001>
80000ece:	1288                	addi	a0,sp,352
80000ed0:	414102b3          	sub	t0,sp,s4
80000ed4:	e5c77793          	andi	a5,a4,-420
80000ed8:	41580033          	sub	zero,a6,s5
80000edc:	2c1c2337          	lui	t1,0x2c1c2
80000ee0:	48a5                	li	a7,9
80000ee2:	01daa4b3          	slt	s1,s5,t4
80000ee6:	13c94613          	xori	a2,s2,316
80000eea:	ceefc013          	xori	zero,t6,-786
80000eee:	8c49                	or	s0,s0,a0
80000ef0:	011fb7b3          	sltu	a5,t6,a7
80000ef4:	997d                	andi	a0,a0,-1
80000ef6:	01615f13          	srli	t5,sp,0x16
80000efa:	0194e833          	or	a6,s1,s9
80000efe:	2fecfa13          	andi	s4,s9,766
80000f02:	170c                	addi	a1,sp,928
80000f04:	717d                	addi	sp,sp,-16
80000f06:	00939b13          	slli	s6,t2,0x9
80000f0a:	01a10933          	add	s2,sp,s10
80000f0e:	9a52                	add	s4,s4,s4
80000f10:	1f232913          	slti	s2,t1,498
80000f14:	0190                	addi	a2,sp,192
80000f16:	859e                	mv	a1,t2
80000f18:	0ce2                	slli	s9,s9,0x18
80000f1a:	8d15                	sub	a0,a0,a3
80000f1c:	5bfd                	li	s7,-1
80000f1e:	00e31533          	sll	a0,t1,a4
80000f22:	1f7d                	addi	t5,t5,-1 # 54318fff <_start-0x2bce7001>
80000f24:	975ba093          	slti	ra,s7,-1675
80000f28:	8eaa                	mv	t4,a0
80000f2a:	035d4ab3          	div	s5,s10,s5
80000f2e:	8db5                	xor	a1,a1,a3
80000f30:	8a543a13          	sltiu	s4,s0,-1883
80000f34:	9c7e                	add	s8,s8,t6
80000f36:	7ab17013          	andi	zero,sp,1963
80000f3a:	01c18033          	add	zero,gp,t3
80000f3e:	18f0e017          	auipc	zero,0x18f0e
80000f42:	01da8033          	add	zero,s5,t4
80000f46:	408c0eb3          	sub	t4,s8,s0
80000f4a:	997d                	andi	a0,a0,-1
80000f4c:	0050d233          	srl	tp,ra,t0
80000f50:	0159b9b3          	sltu	s3,s3,s5
80000f54:	027a                	slli	tp,tp,0x1e
80000f56:	01f5b733          	sltu	a4,a1,t6
80000f5a:	50b6ba13          	sltiu	s4,a3,1291
80000f5e:	8d49                	or	a0,a0,a0
80000f60:	01e60eb3          	add	t4,a2,t5
80000f64:	94458413          	addi	s0,a1,-1724
80000f68:	a77cfb13          	andi	s6,s9,-1417
80000f6c:	5c7d                	li	s8,-1
80000f6e:	032e99b3          	mulh	s3,t4,s2
80000f72:	812d                	srli	a0,a0,0xb
80000f74:	01abe133          	or	sp,s7,s10
80000f78:	037a6333          	rem	t1,s4,s7
80000f7c:	0b5e                	slli	s6,s6,0x17
80000f7e:	76af7e13          	andi	t3,t5,1898
80000f82:	0c361a37          	lui	s4,0xc361
80000f86:	1f08                	addi	a0,sp,944
80000f88:	0265eb33          	rem	s6,a1,t1
80000f8c:	0111fb33          	and	s6,gp,a7
80000f90:	0001                	nop
80000f92:	cb628297          	auipc	t0,0xcb628
80000f96:	8d79                	and	a0,a0,a4
80000f98:	0001                	nop
80000f9a:	13db2013          	slti	zero,s6,317
80000f9e:	03cc95b3          	mulh	a1,s9,t3
80000fa2:	6169                	addi	sp,sp,208
80000fa4:	0083b533          	sltu	a0,t2,s0
80000fa8:	004a5293          	srli	t0,s4,0x4
80000fac:	03a99033          	mulh	zero,s3,s10
80000fb0:	8e09                	sub	a2,a2,a0
80000fb2:	0d66                	slli	s10,s10,0x19
80000fb4:	027464b3          	rem	s1,s0,t2
80000fb8:	01e29213          	slli	tp,t0,0x1e
80000fbc:	020c9f33          	mulh	t5,s9,zero
80000fc0:	8e09                	sub	a2,a2,a0
80000fc2:	ff9cbd13          	sltiu	s10,s9,-7
80000fc6:	d65afc13          	andi	s8,s5,-667
80000fca:	001569b3          	or	s3,a0,ra
80000fce:	41ba0133          	sub	sp,s4,s11
80000fd2:	830d                	srli	a4,a4,0x3
80000fd4:	b69e4213          	xori	tp,t3,-1175
80000fd8:	0291bf33          	mulhu	t5,gp,s1
80000fdc:	010489b3          	add	s3,s1,a6
80000fe0:	87a5                	srai	a5,a5,0x9
80000fe2:	4134d9b3          	sra	s3,s1,s3
80000fe6:	019be933          	or	s2,s7,s9
80000fea:	412b8f33          	sub	t5,s7,s2
80000fee:	00e835b3          	sltu	a1,a6,a4
80000ff2:	8879                	andi	s0,s0,30
80000ff4:	4a05                	li	s4,1
80000ff6:	00dc1093          	slli	ra,s8,0xd
80000ffa:	8d45                	or	a0,a0,s1
80000ffc:	1da24013          	xori	zero,tp,474
80001000:	08a2                	slli	a7,a7,0x8
80001002:	8d15                	sub	a0,a0,a3
80001004:	01a74f33          	xor	t5,a4,s10
80001008:	893d                	andi	a0,a0,15
8000100a:	5c387593          	andi	a1,a6,1475
8000100e:	00ace033          	or	zero,s9,a0
80001012:	01f01fb3          	sll	t6,zero,t6
80001016:	4b35                	li	s6,13
80001018:	0001                	nop
8000101a:	8109                	srli	a0,a0,0x2
8000101c:	8d25                	xor	a0,a0,s1
8000101e:	01b7d213          	srli	tp,a5,0x1b
80001022:	672d6093          	ori	ra,s10,1650
80001026:	6b51                	lui	s6,0x14
80001028:	8916                	mv	s2,t0
8000102a:	127d                	addi	tp,tp,-1 # 9e213c91 <_end+0x1e211995>
8000102c:	01357033          	and	zero,a0,s3
80001030:	0155db13          	srli	s6,a1,0x15
80001034:	8901                	andi	a0,a0,0
80001036:	01819233          	sll	tp,gp,s8
8000103a:	f91aa813          	slti	a6,s5,-111
8000103e:	039c8133          	mul	sp,s9,s9
80001042:	9926                	add	s2,s2,s1
80001044:	01c22833          	slt	a6,tp,t3
80001048:	597d                	li	s2,-1
8000104a:	8359                	srli	a4,a4,0x16
8000104c:	8099                	srli	s1,s1,0x6
8000104e:	01cd3633          	sltu	a2,s10,t3
80001052:	020a3eb3          	mulhu	t4,s4,zero
80001056:	00295893          	srli	a7,s2,0x2
8000105a:	021e87b3          	mul	a5,t4,ra
8000105e:	0172e033          	or	zero,t0,s7
80001062:	035842b3          	div	t0,a6,s5
80001066:	405b09b3          	sub	s3,s6,t0
8000106a:	0001                	nop
8000106c:	f0178213          	addi	tp,a5,-255
80001070:	018f5113          	srli	sp,t5,0x18
80001074:	57617913          	andi	s2,sp,1398
80001078:	3ffaea93          	ori	s5,s5,1023
8000107c:	0298afb3          	mulhsu	t6,a7,s1
80001080:	8d25                	xor	a0,a0,s1
80001082:	00d6db33          	srl	s6,a3,a3
80001086:	50fd                	li	ra,-1
80001088:	0372eab3          	rem	s5,t0,s7
8000108c:	84d1                	srai	s1,s1,0x14
8000108e:	03084f33          	div	t5,a6,a6
80001092:	6085                	lui	ra,0x1
80001094:	409c82b3          	sub	t0,s9,s1
80001098:	039bdd33          	divu	s10,s7,s9
8000109c:	547d8797          	auipc	a5,0x547d8
800010a0:	059c                	addi	a5,sp,704
800010a2:	03780ab3          	mul	s5,a6,s7
800010a6:	012c6b33          	or	s6,s8,s2
800010aa:	8d69                	and	a0,a0,a0
800010ac:	d0aaad13          	slti	s10,s5,-758
800010b0:	0300f413          	andi	s0,ra,48
800010b4:	cffc0a13          	addi	s4,s8,-769
800010b8:	01895013          	srli	zero,s2,0x18
800010bc:	6a24a413          	slti	s0,s1,1698
800010c0:	013e1e33          	sll	t3,t3,s3
800010c4:	0001                	nop
800010c6:	03ca5633          	divu	a2,s4,t3
800010ca:	6115                	addi	sp,sp,288
800010cc:	0001                	nop
800010ce:	031a39b3          	mulhu	s3,s4,a7
800010d2:	8f8d                	sub	a5,a5,a1
800010d4:	0192c9b3          	xor	s3,t0,s9
800010d8:	8d4d                	or	a0,a0,a1
800010da:	4e8e4013          	xori	zero,t3,1256
800010de:	0198cd33          	xor	s10,a7,s9
800010e2:	8f0d                	sub	a4,a4,a1
800010e4:	01dc9113          	slli	sp,s9,0x1d
800010e8:	039a5333          	divu	t1,s4,s9
800010ec:	8d89                	sub	a1,a1,a0
800010ee:	03263c33          	mulhu	s8,a2,s2
800010f2:	00fe0033          	add	zero,t3,a5
800010f6:	4042da33          	sra	s4,t0,tp
800010fa:	8cda                	mv	s9,s6
800010fc:	8d49                	or	a0,a0,a0
800010fe:	01419513          	slli	a0,gp,0x14
80001102:	0193efb3          	or	t6,t2,s9
80001106:	00a5d093          	srli	ra,a1,0xa
8000110a:	00046d33          	or	s10,s0,zero
8000110e:	03ed0a33          	mul	s4,s10,t5
80001112:	682dd597          	auipc	a1,0x682dd
80001116:	8d91                	sub	a1,a1,a2
80001118:	0f04                	addi	s1,sp,912
8000111a:	03ce1fb3          	mulh	t6,t3,t3
8000111e:	41350033          	sub	zero,a0,s3
80001122:	019534b3          	sltu	s1,a0,s9
80001126:	8d6d                	and	a0,a0,a1
80001128:	8e09                	sub	a2,a2,a0
8000112a:	0130cf33          	xor	t5,ra,s3
8000112e:	13b0c493          	xori	s1,ra,315
80001132:	8509                	srai	a0,a0,0x2
80001134:	40da5f13          	srai	t5,s4,0xd
80001138:	00525e13          	srli	t3,tp,0x5
8000113c:	8d2d                	xor	a0,a0,a1
8000113e:	03d9ebb3          	rem	s7,s3,t4
80001142:	8545                	srai	a0,a0,0x11
80001144:	981a                	add	a6,a6,t1
80001146:	ad41e613          	ori	a2,gp,-1324
8000114a:	6769                	lui	a4,0x1a
8000114c:	97de                	add	a5,a5,s7
8000114e:	03de1f33          	mulh	t5,t3,t4
80001152:	c6b14193          	xori	gp,sp,-917
80001156:	b3277417          	auipc	s0,0xb3277
8000115a:	01e78333          	add	t1,a5,t5
8000115e:	012552b3          	srl	t0,a0,s2
80001162:	020a8fb3          	mul	t6,s5,zero
80001166:	846a                	mv	s0,s10
80001168:	997d                	andi	a0,a0,-1
8000116a:	00d10a33          	add	s4,sp,a3
8000116e:	01fed013          	srli	zero,t4,0x1f
80001172:	9bfd                	andi	a5,a5,-1
80001174:	fd3bef93          	ori	t6,s7,-45
80001178:	8525                	srai	a0,a0,0x9
8000117a:	d08af713          	andi	a4,s5,-760
8000117e:	00eca1b3          	slt	gp,s9,a4
80001182:	006f9b13          	slli	s6,t6,0x6
80001186:	034162b3          	rem	t0,sp,s4
8000118a:	00e3d593          	srli	a1,t2,0xe
8000118e:	026bbb33          	mulhu	s6,s7,t1
80001192:	815d                	srli	a0,a0,0x17
80001194:	c51a0437          	lui	s0,0xc51a0
80001198:	0302de33          	divu	t3,t0,a6
8000119c:	0001                	nop
8000119e:	31a59917          	auipc	s2,0x31a59
800011a2:	03b1a4b3          	mulhsu	s1,gp,s11
800011a6:	6085                	lui	ra,0x1
800011a8:	41a98c33          	sub	s8,s3,s10
800011ac:	92da                	add	t0,t0,s6
800011ae:	030c6833          	rem	a6,s8,a6
800011b2:	00409f13          	slli	t5,ra,0x4
800011b6:	0291b4b3          	mulhu	s1,gp,s1
800011ba:	6495                	lui	s1,0x5
800011bc:	402f0333          	sub	t1,t5,sp
800011c0:	02250bb3          	mul	s7,a0,sp
800011c4:	0223c333          	div	t1,t2,sp
800011c8:	010dda13          	srli	s4,s11,0x10
800011cc:	00a8d013          	srli	zero,a7,0xa
800011d0:	14fd                	addi	s1,s1,-1 # 4fff <_start-0x7fffb001>
800011d2:	01471233          	sll	tp,a4,s4
800011d6:	10d2ea93          	ori	s5,t0,269
800011da:	0340ad33          	mulhsu	s10,ra,s4
800011de:	8d31                	xor	a0,a0,a2
800011e0:	e210a113          	slti	sp,ra,-479
800011e4:	00f7fa33          	and	s4,a5,a5
800011e8:	8666                	mv	a2,s9
800011ea:	08b2                	slli	a7,a7,0xc
800011ec:	8d6d                	and	a0,a0,a1
800011ee:	00ce                	slli	ra,ra,0x13
800011f0:	40a18ab3          	sub	s5,gp,a0
800011f4:	d9f72b93          	slti	s7,a4,-609
800011f8:	611d                	addi	sp,sp,416
800011fa:	033dabb3          	mulhsu	s7,s11,s3
800011fe:	8615                	srai	a2,a2,0x5
80001200:	00781a13          	slli	s4,a6,0x7
80001204:	8db1                	xor	a1,a1,a2
80001206:	3f73bb37          	lui	s6,0x3f73b
8000120a:	037f3433          	mulhu	s0,t5,s7
8000120e:	8d21                	xor	a0,a0,s0
80001210:	01a89d13          	slli	s10,a7,0x1a
80001214:	0069b8b3          	sltu	a7,s3,t1
80001218:	bdfefc13          	andi	s8,t4,-1057
8000121c:	021ca2b3          	mulhsu	t0,s9,ra
80001220:	1afd                	addi	s5,s5,-1
80001222:	8d0d                	sub	a0,a0,a1
80001224:	8d69                	and	a0,a0,a0
80001226:	01240b33          	add	s6,s0,s2
8000122a:	013c5a33          	srl	s4,s8,s3
8000122e:	01e83f33          	sltu	t5,a6,t5
80001232:	8d09                	sub	a0,a0,a0
80001234:	d7e84413          	xori	s0,a6,-642
80001238:	9186                	add	gp,gp,ra
8000123a:	2105c713          	xori	a4,a1,528
8000123e:	1b6e2037          	lui	zero,0x1b6e2
80001242:	6821                	lui	a6,0x8
80001244:	81a5                	srli	a1,a1,0x9
80001246:	37d1b093          	sltiu	ra,gp,893
8000124a:	037f8033          	mul	zero,t6,s7
8000124e:	0327be33          	mulhu	t3,a5,s2
80001252:	8d75                	and	a0,a0,a3
80001254:	0059fb33          	and	s6,s3,t0
80001258:	8e2d                	xor	a2,a2,a1
8000125a:	80d9                	srli	s1,s1,0x16
8000125c:	8909                	andi	a0,a0,2
8000125e:	01836733          	or	a4,t1,s8
80001262:	717d                	addi	sp,sp,-16
80001264:	02b9acb3          	mulhsu	s9,s3,a1
80001268:	00aec433          	xor	s0,t4,a0
8000126c:	0207e013          	ori	zero,a5,32
80001270:	001b72b3          	and	t0,s6,ra
80001274:	2619f013          	andi	zero,s3,609
80001278:	01d6d313          	srli	t1,a3,0x1d
8000127c:	1ea3e113          	ori	sp,t2,490
80001280:	8c29                	xor	s0,s0,a0
80001282:	02016317          	auipc	t1,0x2016
80001286:	008e5293          	srli	t0,t3,0x8
8000128a:	41b55d13          	srai	s10,a0,0x1b
8000128e:	bb364a13          	xori	s4,a2,-1101
80001292:	898e                	mv	s3,gp
80001294:	5b2c4013          	xori	zero,s8,1458
80001298:	00b22bb3          	slt	s7,tp,a1
8000129c:	92fd4d13          	xori	s10,s10,-1745
800012a0:	0399e8b3          	rem	a7,s3,s9
800012a4:	00b01e13          	slli	t3,zero,0xb
800012a8:	007140b3          	xor	ra,sp,t2
800012ac:	03a49eb3          	mulh	t4,s1,s10
800012b0:	00e67833          	and	a6,a2,a4
800012b4:	8131                	srli	a0,a0,0xc
800012b6:	0001                	nop
800012b8:	8d65                	and	a0,a0,s1
800012ba:	013d2533          	slt	a0,s10,s3
800012be:	40ea59b3          	sra	s3,s4,a4
800012c2:	3b1b6613          	ori	a2,s6,945
800012c6:	01c30cb3          	add	s9,t1,t3
800012ca:	0312a2b3          	mulhsu	t0,t0,a7
800012ce:	039f0433          	mul	s0,t5,s9
800012d2:	40080d33          	sub	s10,a6,zero
800012d6:	8f71                	and	a4,a4,a2
800012d8:	0281d133          	divu	sp,gp,s0
800012dc:	026331b3          	mulhu	gp,t1,t1
800012e0:	90480013          	addi	zero,a6,-1788 # 7904 <_start-0x7fff86fc>
800012e4:	4204a537          	lui	a0,0x4204a
800012e8:	01e25d33          	srl	s10,tp,t5
800012ec:	001a7133          	and	sp,s4,ra
800012f0:	02a0c5b3          	div	a1,ra,a0
800012f4:	020f5ab3          	divu	s5,t5,zero
800012f8:	5509ae13          	slti	t3,s3,1360
800012fc:	0001                	nop
800012fe:	d86dc513          	xori	a0,s11,-634
80001302:	4063dc13          	srai	s8,t2,0x6
80001306:	03a2c033          	div	zero,t0,s10
8000130a:	413d82b3          	sub	t0,s11,s3
8000130e:	00ae7333          	and	t1,t3,a0
80001312:	0001                	nop
80001314:	8545c813          	xori	a6,a1,-1964
80001318:	017412b3          	sll	t0,s0,s7
8000131c:	d4b96c93          	ori	s9,s2,-693
80001320:	0001                	nop
80001322:	02cf2f33          	mulhsu	t5,t5,a2
80001326:	41415033          	sra	zero,sp,s4
8000132a:	82da                	mv	t0,s6
8000132c:	26b46e93          	ori	t4,s0,619
80001330:	dbfbd017          	auipc	zero,0xdbfbd
80001334:	03bd4eb3          	div	t4,s10,s11
80001338:	020e5933          	divu	s2,t3,zero
8000133c:	5efd                	li	t4,-1
8000133e:	8d21                	xor	a0,a0,s0
80001340:	8e75                	and	a2,a2,a3
80001342:	001e5893          	srli	a7,t3,0x1
80001346:	0188                	addi	a0,sp,192
80001348:	8d15                	sub	a0,a0,a3
8000134a:	40388013          	addi	zero,a7,1027
8000134e:	01654d33          	xor	s10,a0,s6
80001352:	01885e33          	srl	t3,a6,s8
80001356:	8d55                	or	a0,a0,a3
80001358:	0326d733          	divu	a4,a3,s2
8000135c:	8121                	srli	a0,a0,0x8
8000135e:	0a362413          	slti	s0,a2,163
80001362:	039841b3          	div	gp,a6,s9
80001366:	0001                	nop
80001368:	01f25893          	srli	a7,tp,0x1f
8000136c:	843a                	mv	s0,a4
8000136e:	40ce8033          	sub	zero,t4,a2
80001372:	997a                	add	s2,s2,t5
80001374:	40b9                	li	ra,14
80001376:	8cd1                	or	s1,s1,a2
80001378:	8e09                	sub	a2,a2,a0
8000137a:	5ba93293          	sltiu	t0,s2,1466
8000137e:	02a78cb3          	mul	s9,a5,a0
80001382:	00213cb3          	sltu	s9,sp,sp
80001386:	0289bab3          	mulhu	s5,s3,s0
8000138a:	84ca                	mv	s1,s2
8000138c:	fb3a7037          	lui	zero,0xfb3a7
80001390:	8d35                	xor	a0,a0,a3
80001392:	013629b3          	slt	s3,a2,s3
80001396:	0988                	addi	a0,sp,208
80001398:	c0451437          	lui	s0,0xc0451
8000139c:	02ec0ab3          	mul	s5,s8,a4
800013a0:	4601                	li	a2,0
800013a2:	4f81                	li	t6,0
800013a4:	4f05                	li	t5,1
800013a6:	4305                	li	t1,1
800013a8:	4e85                	li	t4,1
800013aa:	4e01                	li	t3,0
800013ac:	70c28737          	lui	a4,0x70c28
800013b0:	c4270713          	addi	a4,a4,-958 # 70c27c42 <_start-0xf3d83be>
800013b4:	4a81                	li	s5,0
800013b6:	4481                	li	s1,0
800013b8:	4101                	li	sp,0
800013ba:	11fd                	addi	gp,gp,-1
800013bc:	0001                	nop
800013be:	624d                	lui	tp,0x13
800013c0:	039ba033          	mulhsu	zero,s7,s9
800013c4:	c07292b7          	lui	t0,0xc0729
800013c8:	8d05                	sub	a0,a0,s1
800013ca:	03a09033          	mulh	zero,ra,s10
800013ce:	0243a633          	mulhsu	a2,t2,tp
800013d2:	0220acb3          	mulhsu	s9,ra,sp
800013d6:	1b04                	addi	s1,sp,432
800013d8:	82830f93          	addi	t6,t1,-2008 # 82016aaa <_end+0x20147ae>
800013dc:	41cf82b3          	sub	t0,t6,t3
800013e0:	177d                	addi	a4,a4,-1
800013e2:	03f1b5b3          	mulhu	a1,gp,t6
800013e6:	44f1                	li	s1,28
800013e8:	02cc69b3          	rem	s3,s8,a2
800013ec:	01b054b3          	srl	s1,zero,s11
800013f0:	597d                	li	s2,-1
800013f2:	01dfd213          	srli	tp,t6,0x1d
800013f6:	01003433          	snez	s0,a6
800013fa:	87e9                	srai	a5,a5,0x1a
800013fc:	0273b2b3          	mulhu	t0,t2,t2
80001400:	d07b0917          	auipc	s2,0xd07b0
80001404:	03ae5ab3          	divu	s5,t3,s10
80001408:	02d08833          	mul	a6,ra,a3
8000140c:	8d75                	and	a0,a0,a3
8000140e:	02d5a1b3          	mulhsu	gp,a1,a3
80001412:	0d71                	addi	s10,s10,28 # a01c <_start-0x7fff5fe4>
80001414:	8d3d                	xor	a0,a0,a5
80001416:	14ace013          	ori	zero,s9,330
8000141a:	879d                	srai	a5,a5,0x7
8000141c:	8e15                	sub	a2,a2,a3
8000141e:	0001                	nop
80001420:	197d                	addi	s2,s2,-1 # 507b13ff <_start-0x2f84ec01>
80001422:	405a09b3          	sub	s3,s4,t0
80001426:	8d55                	or	a0,a0,a3
80001428:	977e0fb7          	lui	t6,0x977e0
8000142c:	8d71                	and	a0,a0,a2
8000142e:	10fd                	addi	ra,ra,-1 # fff <_start-0x7ffff001>
80001430:	8e61                	and	a2,a2,s0
80001432:	00e797b3          	sll	a5,a5,a4
80001436:	da2a6f93          	ori	t6,s4,-606
8000143a:	414f5413          	srai	s0,t5,0x14
8000143e:	40e907b3          	sub	a5,s2,a4
80001442:	8c09                	sub	s0,s0,a0
80001444:	8d25                	xor	a0,a0,s1
80001446:	9e4e                	add	t3,t3,s3
80001448:	5a7d                	li	s4,-1
8000144a:	018f69b3          	or	s3,t5,s8
8000144e:	0001                	nop
80001450:	9a36                	add	s4,s4,a3
80001452:	597a0513          	addi	a0,s4,1431 # c361597 <_start-0x73c9ea69>
80001456:	9316                	add	t1,t1,t0
80001458:	8051                	srli	s0,s0,0x14
8000145a:	00769a93          	slli	s5,a3,0x7
8000145e:	01d82233          	slt	tp,a6,t4
80001462:	028dcd33          	div	s10,s11,s0
80001466:	0710                	addi	a2,sp,896
80001468:	8e49                	or	a2,a2,a0
8000146a:	6129                	addi	sp,sp,192
8000146c:	404f5b13          	srai	s6,t5,0x4
80001470:	dd4e2493          	slti	s1,t3,-556
80001474:	00e81ab3          	sll	s5,a6,a4
80001478:	001c0933          	add	s2,s8,ra
8000147c:	8e35                	xor	a2,a2,a3
8000147e:	8529                	srai	a0,a0,0xa
80001480:	114a8093          	addi	ra,s5,276
80001484:	0c08                	addi	a0,sp,528
80001486:	5e7d                	li	t3,-1
80001488:	8151                	srli	a0,a0,0x14
8000148a:	001cb033          	sltu	zero,s9,ra
8000148e:	0001                	nop
80001490:	8c25                	xor	s0,s0,s1
80001492:	a4b20817          	auipc	a6,0xa4b20
80001496:	527d                	li	tp,-1
80001498:	031a0fb3          	mul	t6,s4,a7
8000149c:	68fd                	lui	a7,0x1f
8000149e:	0348b4b3          	mulhu	s1,a7,s4
800014a2:	41c10033          	sub	zero,sp,t3
800014a6:	829a                	mv	t0,t1
800014a8:	009cb533          	sltu	a0,s9,s1
800014ac:	8f29                	xor	a4,a4,a0
800014ae:	dce84493          	xori	s1,a6,-562
800014b2:	ce882c93          	slti	s9,a6,-792
800014b6:	0cb5                	addi	s9,s9,13 # eec000d <_start-0x7113fff3>
800014b8:	6161                	addi	sp,sp,80
800014ba:	60c9                	lui	ra,0x12
800014bc:	e35ca793          	slti	a5,s9,-459
800014c0:	01e38933          	add	s2,t2,t5
800014c4:	8d11                	sub	a0,a0,a2
800014c6:	7445e713          	ori	a4,a1,1860
800014ca:	02584ab3          	div	s5,a6,t0
800014ce:	01696cb3          	or	s9,s2,s6
800014d2:	00385413          	srli	s0,a6,0x3
800014d6:	4abd                	li	s5,15
800014d8:	414f0033          	sub	zero,t5,s4
800014dc:	1a88                	addi	a0,sp,368
800014de:	0001                	nop
800014e0:	00870a33          	add	s4,a4,s0
800014e4:	03d095b3          	mulh	a1,ra,t4
800014e8:	016febb3          	or	s7,t6,s6
800014ec:	00979333          	sll	t1,a5,s1
800014f0:	2e20f793          	andi	a5,ra,738
800014f4:	0001                	nop
800014f6:	9342                	add	t1,t1,a6
800014f8:	8a8e                	mv	s5,gp
800014fa:	01a79893          	slli	a7,a5,0x1a
800014fe:	0123ccb3          	xor	s9,t2,s2
80001502:	40205013          	srai	zero,zero,0x2
80001506:	e31d1cb7          	lui	s9,0xe31d1
8000150a:	9212                	add	tp,tp,tp
8000150c:	0153ceb3          	xor	t4,t2,s5
80001510:	437aa413          	slti	s0,s5,1079
80001514:	c5914013          	xori	zero,sp,-935
80001518:	883ae013          	ori	zero,s5,-1917
8000151c:	004449b3          	xor	s3,s0,tp
80001520:	111c                	addi	a5,sp,160
80001522:	6e001b17          	auipc	s6,0x6e001
80001526:	8e55                	or	a2,a2,a3
80001528:	012e47b3          	xor	a5,t3,s2
8000152c:	8cb9                	xor	s1,s1,a4
8000152e:	40258a33          	sub	s4,a1,sp
80001532:	017b1493          	slli	s1,s6,0x17
80001536:	9e0a                	add	t3,t3,sp
80001538:	0b08                	addi	a0,sp,400
8000153a:	0149cd33          	xor	s10,s3,s4
8000153e:	00998433          	add	s0,s3,s1
80001542:	8505                	srai	a0,a0,0x1
80001544:	01789b33          	sll	s6,a7,s7
80001548:	0043b0b3          	sltu	ra,t2,tp
8000154c:	6b85                	lui	s7,0x1
8000154e:	09deb9b7          	lui	s3,0x9deb
80001552:	0e88                	addi	a0,sp,848
80001554:	6809                	lui	a6,0x2
80001556:	01cfecb3          	or	s9,t6,t3
8000155a:	00ab9d13          	slli	s10,s7,0xa
8000155e:	402c0033          	sub	zero,s8,sp
80001562:	0001                	nop
80001564:	67acdb17          	auipc	s6,0x67acd
80001568:	01f25a33          	srl	s4,tp,t6
8000156c:	1888                	addi	a0,sp,112
8000156e:	8669                	srai	a2,a2,0x1a
80001570:	00ae47b3          	xor	a5,t3,a0
80001574:	1a0b8813          	addi	a6,s7,416 # 11a0 <_start-0x7fffee60>
80001578:	0030d713          	srli	a4,ra,0x3
8000157c:	00f6d313          	srli	t1,a3,0xf
80001580:	4d45                	li	s10,17
80001582:	00f93f33          	sltu	t5,s2,a5
80001586:	01b6f8b3          	and	a7,a3,s11
8000158a:	2b8eb213          	sltiu	tp,t4,696
8000158e:	fd7bc097          	auipc	ra,0xfd7bc
80001592:	01247933          	and	s2,s0,s2
80001596:	41ff07b3          	sub	a5,t5,t6
8000159a:	85e1                	srai	a1,a1,0x18
8000159c:	8d15                	sub	a0,a0,a3
8000159e:	d668be93          	sltiu	t4,a7,-666
800015a2:	00ec9033          	sll	zero,s9,a4
800015a6:	8d49                	or	a0,a0,a0
800015a8:	00a51313          	slli	t1,a0,0xa
800015ac:	886e                	mv	a6,s11
800015ae:	0001                	nop
800015b0:	8121                	srli	a0,a0,0x8
800015b2:	0166b033          	sltu	zero,a3,s6
800015b6:	00090c33          	add	s8,s2,zero
800015ba:	0197d5b3          	srl	a1,a5,s9
800015be:	8505                	srai	a0,a0,0x1
800015c0:	005b5ab3          	srl	s5,s6,t0
800015c4:	8731                	srai	a4,a4,0xc
800015c6:	02075bb3          	divu	s7,a4,zero
800015ca:	02f4ad33          	mulhsu	s10,s1,a5
800015ce:	03a00433          	mul	s0,zero,s10
800015d2:	00edd493          	srli	s1,s11,0xe
800015d6:	10b7a293          	slti	t0,a5,267
800015da:	6735                	lui	a4,0xd
800015dc:	8cfa                	mv	s9,t5
800015de:	0001                	nop
800015e0:	03501cb3          	mulh	s9,zero,s5
800015e4:	44d1                	li	s1,20
800015e6:	717d                	addi	sp,sp,-16
800015e8:	005bfe33          	and	t3,s7,t0
800015ec:	030324b3          	mulhsu	s1,t1,a6
800015f0:	271c7013          	andi	zero,s8,625
800015f4:	88d2                	mv	a7,s4
800015f6:	02794833          	div	a6,s2,t2
800015fa:	038a4c33          	div	s8,s4,s8
800015fe:	717d                	addi	sp,sp,-16
80001600:	8e71                	and	a2,a2,a2
80001602:	8d51                	or	a0,a0,a2
80001604:	5c7d                	li	s8,-1
80001606:	97d6                	add	a5,a5,s5
80001608:	694d                	lui	s2,0x13
8000160a:	ff4da993          	slti	s3,s11,-12
8000160e:	40d35eb3          	sra	t4,t1,a3
80001612:	415d5833          	sra	a6,s10,s5
80001616:	9342                	add	t1,t1,a6
80001618:	a8090913          	addi	s2,s2,-1408 # 12a80 <_start-0x7ffed580>
8000161c:	003fd613          	srli	a2,t6,0x3
80001620:	88f1                	andi	s1,s1,28
80001622:	d83b2f13          	slti	t5,s6,-637
80001626:	010ee033          	or	zero,t4,a6
8000162a:	0001                	nop
8000162c:	00b83233          	sltu	tp,a6,a1
80001630:	0332d233          	divu	tp,t0,s3
80001634:	8916                	mv	s2,t0
80001636:	902bce93          	xori	t4,s7,-1790
8000163a:	0001                	nop
8000163c:	01bd6033          	or	zero,s10,s11
80001640:	02590c33          	mul	s8,s2,t0
80001644:	0153db33          	srl	s6,t2,s5
80001648:	01b4df33          	srl	t5,s1,s11
8000164c:	39e0ef13          	ori	t5,ra,926
80001650:	61064313          	xori	t1,a2,1552
80001654:	00244033          	xor	zero,s0,sp
80001658:	997d                	andi	a0,a0,-1
8000165a:	415f5e33          	sra	t3,t5,s5
8000165e:	5bfd                	li	s7,-1
80001660:	303fbb13          	sltiu	s6,t6,771
80001664:	8d0d                	sub	a0,a0,a1
80001666:	02014033          	div	zero,sp,zero
8000166a:	1f7d                	addi	t5,t5,-1
8000166c:	01a0de33          	srl	t3,ra,s10
80001670:	00e5eb33          	or	s6,a1,a4
80001674:	691cfe13          	andi	t3,s9,1681
80001678:	8d0d                	sub	a0,a0,a1
8000167a:	0308b733          	mulhu	a4,a7,a6
8000167e:	018c5113          	srli	sp,s8,0x18
80001682:	6175                	addi	sp,sp,368
80001684:	3f1bcc17          	auipc	s8,0x3f1bc
80001688:	2e70d537          	lui	a0,0x2e70d
8000168c:	01d51413          	slli	s0,a0,0x1d
80001690:	00000397          	auipc	t2,0x0
80001694:	00c38393          	addi	t2,t2,12 # 8000169c <test_done>
80001698:	00038067          	jr	t2

8000169c <test_done>:
8000169c:	4185                	li	gp,1
8000169e:	00000073          	ecall

800016a2 <write_tohost>:
800016a2:	7003ff17          	auipc	t5,0x7003f
800016a6:	943f2f23          	sw	gp,-1698(t5) # f0040000 <tohost>

800016aa <_exit>:
800016aa:	bfe5                	j	800016a2 <write_tohost>

800016ac <instr_end>:
800016ac:	0001                	nop

800016ae <mmode_intr_vector_1>:
800016ae:	340d9df3          	csrrw	s11,mscratch,s11
800016b2:	00068db3          	add	s11,a3,zero
800016b6:	f84d8d93          	addi	s11,s11,-124
800016ba:	001da223          	sw	ra,4(s11)
800016be:	002da423          	sw	sp,8(s11)
800016c2:	003da623          	sw	gp,12(s11)
800016c6:	004da823          	sw	tp,16(s11)
800016ca:	005daa23          	sw	t0,20(s11)
800016ce:	006dac23          	sw	t1,24(s11)
800016d2:	007dae23          	sw	t2,28(s11)
800016d6:	028da023          	sw	s0,32(s11)
800016da:	029da223          	sw	s1,36(s11)
800016de:	02ada423          	sw	a0,40(s11)
800016e2:	02bda623          	sw	a1,44(s11)
800016e6:	02cda823          	sw	a2,48(s11)
800016ea:	02ddaa23          	sw	a3,52(s11)
800016ee:	02edac23          	sw	a4,56(s11)
800016f2:	02fdae23          	sw	a5,60(s11)
800016f6:	050da023          	sw	a6,64(s11)
800016fa:	051da223          	sw	a7,68(s11)
800016fe:	052da423          	sw	s2,72(s11)
80001702:	053da623          	sw	s3,76(s11)
80001706:	054da823          	sw	s4,80(s11)
8000170a:	055daa23          	sw	s5,84(s11)
8000170e:	056dac23          	sw	s6,88(s11)
80001712:	057dae23          	sw	s7,92(s11)
80001716:	078da023          	sw	s8,96(s11)
8000171a:	079da223          	sw	s9,100(s11)
8000171e:	07ada423          	sw	s10,104(s11)
80001722:	07bda623          	sw	s11,108(s11)
80001726:	07cda823          	sw	t3,112(s11)
8000172a:	07ddaa23          	sw	t4,116(s11)
8000172e:	07edac23          	sw	t5,120(s11)
80001732:	07fdae23          	sw	t6,124(s11)
80001736:	34202ff3          	csrr	t6,mcause
8000173a:	01ffdf93          	srli	t6,t6,0x1f
8000173e:	000f8463          	beqz	t6,80001746 <mmode_intr_vector_1+0x98>
80001742:	3170006f          	j	80002258 <mmode_intr_handler>
80001746:	00000397          	auipc	t2,0x0
8000174a:	f5638393          	addi	t2,t2,-170 # 8000169c <test_done>
8000174e:	00038067          	jr	t2

80001752 <mmode_intr_vector_2>:
80001752:	340d9df3          	csrrw	s11,mscratch,s11
80001756:	00068db3          	add	s11,a3,zero
8000175a:	f84d8d93          	addi	s11,s11,-124
8000175e:	001da223          	sw	ra,4(s11)
80001762:	002da423          	sw	sp,8(s11)
80001766:	003da623          	sw	gp,12(s11)
8000176a:	004da823          	sw	tp,16(s11)
8000176e:	005daa23          	sw	t0,20(s11)
80001772:	006dac23          	sw	t1,24(s11)
80001776:	007dae23          	sw	t2,28(s11)
8000177a:	028da023          	sw	s0,32(s11)
8000177e:	029da223          	sw	s1,36(s11)
80001782:	02ada423          	sw	a0,40(s11)
80001786:	02bda623          	sw	a1,44(s11)
8000178a:	02cda823          	sw	a2,48(s11)
8000178e:	02ddaa23          	sw	a3,52(s11)
80001792:	02edac23          	sw	a4,56(s11)
80001796:	02fdae23          	sw	a5,60(s11)
8000179a:	050da023          	sw	a6,64(s11)
8000179e:	051da223          	sw	a7,68(s11)
800017a2:	052da423          	sw	s2,72(s11)
800017a6:	053da623          	sw	s3,76(s11)
800017aa:	054da823          	sw	s4,80(s11)
800017ae:	055daa23          	sw	s5,84(s11)
800017b2:	056dac23          	sw	s6,88(s11)
800017b6:	057dae23          	sw	s7,92(s11)
800017ba:	078da023          	sw	s8,96(s11)
800017be:	079da223          	sw	s9,100(s11)
800017c2:	07ada423          	sw	s10,104(s11)
800017c6:	07bda623          	sw	s11,108(s11)
800017ca:	07cda823          	sw	t3,112(s11)
800017ce:	07ddaa23          	sw	t4,116(s11)
800017d2:	07edac23          	sw	t5,120(s11)
800017d6:	07fdae23          	sw	t6,124(s11)
800017da:	34202ff3          	csrr	t6,mcause
800017de:	01ffdf93          	srli	t6,t6,0x1f
800017e2:	000f8463          	beqz	t6,800017ea <mmode_intr_vector_2+0x98>
800017e6:	2730006f          	j	80002258 <mmode_intr_handler>
800017ea:	00000397          	auipc	t2,0x0
800017ee:	eb238393          	addi	t2,t2,-334 # 8000169c <test_done>
800017f2:	00038067          	jr	t2

800017f6 <mmode_intr_vector_3>:
800017f6:	340d9df3          	csrrw	s11,mscratch,s11
800017fa:	00068db3          	add	s11,a3,zero
800017fe:	f84d8d93          	addi	s11,s11,-124
80001802:	001da223          	sw	ra,4(s11)
80001806:	002da423          	sw	sp,8(s11)
8000180a:	003da623          	sw	gp,12(s11)
8000180e:	004da823          	sw	tp,16(s11)
80001812:	005daa23          	sw	t0,20(s11)
80001816:	006dac23          	sw	t1,24(s11)
8000181a:	007dae23          	sw	t2,28(s11)
8000181e:	028da023          	sw	s0,32(s11)
80001822:	029da223          	sw	s1,36(s11)
80001826:	02ada423          	sw	a0,40(s11)
8000182a:	02bda623          	sw	a1,44(s11)
8000182e:	02cda823          	sw	a2,48(s11)
80001832:	02ddaa23          	sw	a3,52(s11)
80001836:	02edac23          	sw	a4,56(s11)
8000183a:	02fdae23          	sw	a5,60(s11)
8000183e:	050da023          	sw	a6,64(s11)
80001842:	051da223          	sw	a7,68(s11)
80001846:	052da423          	sw	s2,72(s11)
8000184a:	053da623          	sw	s3,76(s11)
8000184e:	054da823          	sw	s4,80(s11)
80001852:	055daa23          	sw	s5,84(s11)
80001856:	056dac23          	sw	s6,88(s11)
8000185a:	057dae23          	sw	s7,92(s11)
8000185e:	078da023          	sw	s8,96(s11)
80001862:	079da223          	sw	s9,100(s11)
80001866:	07ada423          	sw	s10,104(s11)
8000186a:	07bda623          	sw	s11,108(s11)
8000186e:	07cda823          	sw	t3,112(s11)
80001872:	07ddaa23          	sw	t4,116(s11)
80001876:	07edac23          	sw	t5,120(s11)
8000187a:	07fdae23          	sw	t6,124(s11)
8000187e:	34202ff3          	csrr	t6,mcause
80001882:	01ffdf93          	srli	t6,t6,0x1f
80001886:	000f8463          	beqz	t6,8000188e <mmode_intr_vector_3+0x98>
8000188a:	1cf0006f          	j	80002258 <mmode_intr_handler>
8000188e:	00000397          	auipc	t2,0x0
80001892:	e0e38393          	addi	t2,t2,-498 # 8000169c <test_done>
80001896:	00038067          	jr	t2

8000189a <mmode_intr_vector_4>:
8000189a:	340d9df3          	csrrw	s11,mscratch,s11
8000189e:	00068db3          	add	s11,a3,zero
800018a2:	f84d8d93          	addi	s11,s11,-124
800018a6:	001da223          	sw	ra,4(s11)
800018aa:	002da423          	sw	sp,8(s11)
800018ae:	003da623          	sw	gp,12(s11)
800018b2:	004da823          	sw	tp,16(s11)
800018b6:	005daa23          	sw	t0,20(s11)
800018ba:	006dac23          	sw	t1,24(s11)
800018be:	007dae23          	sw	t2,28(s11)
800018c2:	028da023          	sw	s0,32(s11)
800018c6:	029da223          	sw	s1,36(s11)
800018ca:	02ada423          	sw	a0,40(s11)
800018ce:	02bda623          	sw	a1,44(s11)
800018d2:	02cda823          	sw	a2,48(s11)
800018d6:	02ddaa23          	sw	a3,52(s11)
800018da:	02edac23          	sw	a4,56(s11)
800018de:	02fdae23          	sw	a5,60(s11)
800018e2:	050da023          	sw	a6,64(s11)
800018e6:	051da223          	sw	a7,68(s11)
800018ea:	052da423          	sw	s2,72(s11)
800018ee:	053da623          	sw	s3,76(s11)
800018f2:	054da823          	sw	s4,80(s11)
800018f6:	055daa23          	sw	s5,84(s11)
800018fa:	056dac23          	sw	s6,88(s11)
800018fe:	057dae23          	sw	s7,92(s11)
80001902:	078da023          	sw	s8,96(s11)
80001906:	079da223          	sw	s9,100(s11)
8000190a:	07ada423          	sw	s10,104(s11)
8000190e:	07bda623          	sw	s11,108(s11)
80001912:	07cda823          	sw	t3,112(s11)
80001916:	07ddaa23          	sw	t4,116(s11)
8000191a:	07edac23          	sw	t5,120(s11)
8000191e:	07fdae23          	sw	t6,124(s11)
80001922:	34202ff3          	csrr	t6,mcause
80001926:	01ffdf93          	srli	t6,t6,0x1f
8000192a:	000f8463          	beqz	t6,80001932 <mmode_intr_vector_4+0x98>
8000192e:	12b0006f          	j	80002258 <mmode_intr_handler>
80001932:	00000397          	auipc	t2,0x0
80001936:	d6a38393          	addi	t2,t2,-662 # 8000169c <test_done>
8000193a:	00038067          	jr	t2

8000193e <mmode_intr_vector_5>:
8000193e:	340d9df3          	csrrw	s11,mscratch,s11
80001942:	00068db3          	add	s11,a3,zero
80001946:	f84d8d93          	addi	s11,s11,-124
8000194a:	001da223          	sw	ra,4(s11)
8000194e:	002da423          	sw	sp,8(s11)
80001952:	003da623          	sw	gp,12(s11)
80001956:	004da823          	sw	tp,16(s11)
8000195a:	005daa23          	sw	t0,20(s11)
8000195e:	006dac23          	sw	t1,24(s11)
80001962:	007dae23          	sw	t2,28(s11)
80001966:	028da023          	sw	s0,32(s11)
8000196a:	029da223          	sw	s1,36(s11)
8000196e:	02ada423          	sw	a0,40(s11)
80001972:	02bda623          	sw	a1,44(s11)
80001976:	02cda823          	sw	a2,48(s11)
8000197a:	02ddaa23          	sw	a3,52(s11)
8000197e:	02edac23          	sw	a4,56(s11)
80001982:	02fdae23          	sw	a5,60(s11)
80001986:	050da023          	sw	a6,64(s11)
8000198a:	051da223          	sw	a7,68(s11)
8000198e:	052da423          	sw	s2,72(s11)
80001992:	053da623          	sw	s3,76(s11)
80001996:	054da823          	sw	s4,80(s11)
8000199a:	055daa23          	sw	s5,84(s11)
8000199e:	056dac23          	sw	s6,88(s11)
800019a2:	057dae23          	sw	s7,92(s11)
800019a6:	078da023          	sw	s8,96(s11)
800019aa:	079da223          	sw	s9,100(s11)
800019ae:	07ada423          	sw	s10,104(s11)
800019b2:	07bda623          	sw	s11,108(s11)
800019b6:	07cda823          	sw	t3,112(s11)
800019ba:	07ddaa23          	sw	t4,116(s11)
800019be:	07edac23          	sw	t5,120(s11)
800019c2:	07fdae23          	sw	t6,124(s11)
800019c6:	34202ff3          	csrr	t6,mcause
800019ca:	01ffdf93          	srli	t6,t6,0x1f
800019ce:	000f8463          	beqz	t6,800019d6 <mmode_intr_vector_5+0x98>
800019d2:	0870006f          	j	80002258 <mmode_intr_handler>
800019d6:	00000397          	auipc	t2,0x0
800019da:	cc638393          	addi	t2,t2,-826 # 8000169c <test_done>
800019de:	00038067          	jr	t2

800019e2 <mmode_intr_vector_6>:
800019e2:	340d9df3          	csrrw	s11,mscratch,s11
800019e6:	00068db3          	add	s11,a3,zero
800019ea:	f84d8d93          	addi	s11,s11,-124
800019ee:	001da223          	sw	ra,4(s11)
800019f2:	002da423          	sw	sp,8(s11)
800019f6:	003da623          	sw	gp,12(s11)
800019fa:	004da823          	sw	tp,16(s11)
800019fe:	005daa23          	sw	t0,20(s11)
80001a02:	006dac23          	sw	t1,24(s11)
80001a06:	007dae23          	sw	t2,28(s11)
80001a0a:	028da023          	sw	s0,32(s11)
80001a0e:	029da223          	sw	s1,36(s11)
80001a12:	02ada423          	sw	a0,40(s11)
80001a16:	02bda623          	sw	a1,44(s11)
80001a1a:	02cda823          	sw	a2,48(s11)
80001a1e:	02ddaa23          	sw	a3,52(s11)
80001a22:	02edac23          	sw	a4,56(s11)
80001a26:	02fdae23          	sw	a5,60(s11)
80001a2a:	050da023          	sw	a6,64(s11)
80001a2e:	051da223          	sw	a7,68(s11)
80001a32:	052da423          	sw	s2,72(s11)
80001a36:	053da623          	sw	s3,76(s11)
80001a3a:	054da823          	sw	s4,80(s11)
80001a3e:	055daa23          	sw	s5,84(s11)
80001a42:	056dac23          	sw	s6,88(s11)
80001a46:	057dae23          	sw	s7,92(s11)
80001a4a:	078da023          	sw	s8,96(s11)
80001a4e:	079da223          	sw	s9,100(s11)
80001a52:	07ada423          	sw	s10,104(s11)
80001a56:	07bda623          	sw	s11,108(s11)
80001a5a:	07cda823          	sw	t3,112(s11)
80001a5e:	07ddaa23          	sw	t4,116(s11)
80001a62:	07edac23          	sw	t5,120(s11)
80001a66:	07fdae23          	sw	t6,124(s11)
80001a6a:	34202ff3          	csrr	t6,mcause
80001a6e:	01ffdf93          	srli	t6,t6,0x1f
80001a72:	000f8363          	beqz	t6,80001a78 <mmode_intr_vector_6+0x96>
80001a76:	a7cd                	j	80002258 <mmode_intr_handler>
80001a78:	00000397          	auipc	t2,0x0
80001a7c:	c2438393          	addi	t2,t2,-988 # 8000169c <test_done>
80001a80:	00038067          	jr	t2

80001a84 <mmode_intr_vector_7>:
80001a84:	340d9df3          	csrrw	s11,mscratch,s11
80001a88:	00068db3          	add	s11,a3,zero
80001a8c:	f84d8d93          	addi	s11,s11,-124
80001a90:	001da223          	sw	ra,4(s11)
80001a94:	002da423          	sw	sp,8(s11)
80001a98:	003da623          	sw	gp,12(s11)
80001a9c:	004da823          	sw	tp,16(s11)
80001aa0:	005daa23          	sw	t0,20(s11)
80001aa4:	006dac23          	sw	t1,24(s11)
80001aa8:	007dae23          	sw	t2,28(s11)
80001aac:	028da023          	sw	s0,32(s11)
80001ab0:	029da223          	sw	s1,36(s11)
80001ab4:	02ada423          	sw	a0,40(s11)
80001ab8:	02bda623          	sw	a1,44(s11)
80001abc:	02cda823          	sw	a2,48(s11)
80001ac0:	02ddaa23          	sw	a3,52(s11)
80001ac4:	02edac23          	sw	a4,56(s11)
80001ac8:	02fdae23          	sw	a5,60(s11)
80001acc:	050da023          	sw	a6,64(s11)
80001ad0:	051da223          	sw	a7,68(s11)
80001ad4:	052da423          	sw	s2,72(s11)
80001ad8:	053da623          	sw	s3,76(s11)
80001adc:	054da823          	sw	s4,80(s11)
80001ae0:	055daa23          	sw	s5,84(s11)
80001ae4:	056dac23          	sw	s6,88(s11)
80001ae8:	057dae23          	sw	s7,92(s11)
80001aec:	078da023          	sw	s8,96(s11)
80001af0:	079da223          	sw	s9,100(s11)
80001af4:	07ada423          	sw	s10,104(s11)
80001af8:	07bda623          	sw	s11,108(s11)
80001afc:	07cda823          	sw	t3,112(s11)
80001b00:	07ddaa23          	sw	t4,116(s11)
80001b04:	07edac23          	sw	t5,120(s11)
80001b08:	07fdae23          	sw	t6,124(s11)
80001b0c:	34202ff3          	csrr	t6,mcause
80001b10:	01ffdf93          	srli	t6,t6,0x1f
80001b14:	000f8363          	beqz	t6,80001b1a <mmode_intr_vector_7+0x96>
80001b18:	a781                	j	80002258 <mmode_intr_handler>
80001b1a:	00000397          	auipc	t2,0x0
80001b1e:	b8238393          	addi	t2,t2,-1150 # 8000169c <test_done>
80001b22:	00038067          	jr	t2

80001b26 <mmode_intr_vector_8>:
80001b26:	340d9df3          	csrrw	s11,mscratch,s11
80001b2a:	00068db3          	add	s11,a3,zero
80001b2e:	f84d8d93          	addi	s11,s11,-124
80001b32:	001da223          	sw	ra,4(s11)
80001b36:	002da423          	sw	sp,8(s11)
80001b3a:	003da623          	sw	gp,12(s11)
80001b3e:	004da823          	sw	tp,16(s11)
80001b42:	005daa23          	sw	t0,20(s11)
80001b46:	006dac23          	sw	t1,24(s11)
80001b4a:	007dae23          	sw	t2,28(s11)
80001b4e:	028da023          	sw	s0,32(s11)
80001b52:	029da223          	sw	s1,36(s11)
80001b56:	02ada423          	sw	a0,40(s11)
80001b5a:	02bda623          	sw	a1,44(s11)
80001b5e:	02cda823          	sw	a2,48(s11)
80001b62:	02ddaa23          	sw	a3,52(s11)
80001b66:	02edac23          	sw	a4,56(s11)
80001b6a:	02fdae23          	sw	a5,60(s11)
80001b6e:	050da023          	sw	a6,64(s11)
80001b72:	051da223          	sw	a7,68(s11)
80001b76:	052da423          	sw	s2,72(s11)
80001b7a:	053da623          	sw	s3,76(s11)
80001b7e:	054da823          	sw	s4,80(s11)
80001b82:	055daa23          	sw	s5,84(s11)
80001b86:	056dac23          	sw	s6,88(s11)
80001b8a:	057dae23          	sw	s7,92(s11)
80001b8e:	078da023          	sw	s8,96(s11)
80001b92:	079da223          	sw	s9,100(s11)
80001b96:	07ada423          	sw	s10,104(s11)
80001b9a:	07bda623          	sw	s11,108(s11)
80001b9e:	07cda823          	sw	t3,112(s11)
80001ba2:	07ddaa23          	sw	t4,116(s11)
80001ba6:	07edac23          	sw	t5,120(s11)
80001baa:	07fdae23          	sw	t6,124(s11)
80001bae:	34202ff3          	csrr	t6,mcause
80001bb2:	01ffdf93          	srli	t6,t6,0x1f
80001bb6:	000f8363          	beqz	t6,80001bbc <mmode_intr_vector_8+0x96>
80001bba:	ad79                	j	80002258 <mmode_intr_handler>
80001bbc:	00000397          	auipc	t2,0x0
80001bc0:	ae038393          	addi	t2,t2,-1312 # 8000169c <test_done>
80001bc4:	00038067          	jr	t2

80001bc8 <mmode_intr_vector_9>:
80001bc8:	340d9df3          	csrrw	s11,mscratch,s11
80001bcc:	00068db3          	add	s11,a3,zero
80001bd0:	f84d8d93          	addi	s11,s11,-124
80001bd4:	001da223          	sw	ra,4(s11)
80001bd8:	002da423          	sw	sp,8(s11)
80001bdc:	003da623          	sw	gp,12(s11)
80001be0:	004da823          	sw	tp,16(s11)
80001be4:	005daa23          	sw	t0,20(s11)
80001be8:	006dac23          	sw	t1,24(s11)
80001bec:	007dae23          	sw	t2,28(s11)
80001bf0:	028da023          	sw	s0,32(s11)
80001bf4:	029da223          	sw	s1,36(s11)
80001bf8:	02ada423          	sw	a0,40(s11)
80001bfc:	02bda623          	sw	a1,44(s11)
80001c00:	02cda823          	sw	a2,48(s11)
80001c04:	02ddaa23          	sw	a3,52(s11)
80001c08:	02edac23          	sw	a4,56(s11)
80001c0c:	02fdae23          	sw	a5,60(s11)
80001c10:	050da023          	sw	a6,64(s11)
80001c14:	051da223          	sw	a7,68(s11)
80001c18:	052da423          	sw	s2,72(s11)
80001c1c:	053da623          	sw	s3,76(s11)
80001c20:	054da823          	sw	s4,80(s11)
80001c24:	055daa23          	sw	s5,84(s11)
80001c28:	056dac23          	sw	s6,88(s11)
80001c2c:	057dae23          	sw	s7,92(s11)
80001c30:	078da023          	sw	s8,96(s11)
80001c34:	079da223          	sw	s9,100(s11)
80001c38:	07ada423          	sw	s10,104(s11)
80001c3c:	07bda623          	sw	s11,108(s11)
80001c40:	07cda823          	sw	t3,112(s11)
80001c44:	07ddaa23          	sw	t4,116(s11)
80001c48:	07edac23          	sw	t5,120(s11)
80001c4c:	07fdae23          	sw	t6,124(s11)
80001c50:	34202ff3          	csrr	t6,mcause
80001c54:	01ffdf93          	srli	t6,t6,0x1f
80001c58:	000f8363          	beqz	t6,80001c5e <mmode_intr_vector_9+0x96>
80001c5c:	abf5                	j	80002258 <mmode_intr_handler>
80001c5e:	00000397          	auipc	t2,0x0
80001c62:	a3e38393          	addi	t2,t2,-1474 # 8000169c <test_done>
80001c66:	00038067          	jr	t2

80001c6a <mmode_intr_vector_10>:
80001c6a:	340d9df3          	csrrw	s11,mscratch,s11
80001c6e:	00068db3          	add	s11,a3,zero
80001c72:	f84d8d93          	addi	s11,s11,-124
80001c76:	001da223          	sw	ra,4(s11)
80001c7a:	002da423          	sw	sp,8(s11)
80001c7e:	003da623          	sw	gp,12(s11)
80001c82:	004da823          	sw	tp,16(s11)
80001c86:	005daa23          	sw	t0,20(s11)
80001c8a:	006dac23          	sw	t1,24(s11)
80001c8e:	007dae23          	sw	t2,28(s11)
80001c92:	028da023          	sw	s0,32(s11)
80001c96:	029da223          	sw	s1,36(s11)
80001c9a:	02ada423          	sw	a0,40(s11)
80001c9e:	02bda623          	sw	a1,44(s11)
80001ca2:	02cda823          	sw	a2,48(s11)
80001ca6:	02ddaa23          	sw	a3,52(s11)
80001caa:	02edac23          	sw	a4,56(s11)
80001cae:	02fdae23          	sw	a5,60(s11)
80001cb2:	050da023          	sw	a6,64(s11)
80001cb6:	051da223          	sw	a7,68(s11)
80001cba:	052da423          	sw	s2,72(s11)
80001cbe:	053da623          	sw	s3,76(s11)
80001cc2:	054da823          	sw	s4,80(s11)
80001cc6:	055daa23          	sw	s5,84(s11)
80001cca:	056dac23          	sw	s6,88(s11)
80001cce:	057dae23          	sw	s7,92(s11)
80001cd2:	078da023          	sw	s8,96(s11)
80001cd6:	079da223          	sw	s9,100(s11)
80001cda:	07ada423          	sw	s10,104(s11)
80001cde:	07bda623          	sw	s11,108(s11)
80001ce2:	07cda823          	sw	t3,112(s11)
80001ce6:	07ddaa23          	sw	t4,116(s11)
80001cea:	07edac23          	sw	t5,120(s11)
80001cee:	07fdae23          	sw	t6,124(s11)
80001cf2:	34202ff3          	csrr	t6,mcause
80001cf6:	01ffdf93          	srli	t6,t6,0x1f
80001cfa:	000f8363          	beqz	t6,80001d00 <mmode_intr_vector_10+0x96>
80001cfe:	aba9                	j	80002258 <mmode_intr_handler>
80001d00:	00000397          	auipc	t2,0x0
80001d04:	99c38393          	addi	t2,t2,-1636 # 8000169c <test_done>
80001d08:	00038067          	jr	t2

80001d0c <mmode_intr_vector_11>:
80001d0c:	340d9df3          	csrrw	s11,mscratch,s11
80001d10:	00068db3          	add	s11,a3,zero
80001d14:	f84d8d93          	addi	s11,s11,-124
80001d18:	001da223          	sw	ra,4(s11)
80001d1c:	002da423          	sw	sp,8(s11)
80001d20:	003da623          	sw	gp,12(s11)
80001d24:	004da823          	sw	tp,16(s11)
80001d28:	005daa23          	sw	t0,20(s11)
80001d2c:	006dac23          	sw	t1,24(s11)
80001d30:	007dae23          	sw	t2,28(s11)
80001d34:	028da023          	sw	s0,32(s11)
80001d38:	029da223          	sw	s1,36(s11)
80001d3c:	02ada423          	sw	a0,40(s11)
80001d40:	02bda623          	sw	a1,44(s11)
80001d44:	02cda823          	sw	a2,48(s11)
80001d48:	02ddaa23          	sw	a3,52(s11)
80001d4c:	02edac23          	sw	a4,56(s11)
80001d50:	02fdae23          	sw	a5,60(s11)
80001d54:	050da023          	sw	a6,64(s11)
80001d58:	051da223          	sw	a7,68(s11)
80001d5c:	052da423          	sw	s2,72(s11)
80001d60:	053da623          	sw	s3,76(s11)
80001d64:	054da823          	sw	s4,80(s11)
80001d68:	055daa23          	sw	s5,84(s11)
80001d6c:	056dac23          	sw	s6,88(s11)
80001d70:	057dae23          	sw	s7,92(s11)
80001d74:	078da023          	sw	s8,96(s11)
80001d78:	079da223          	sw	s9,100(s11)
80001d7c:	07ada423          	sw	s10,104(s11)
80001d80:	07bda623          	sw	s11,108(s11)
80001d84:	07cda823          	sw	t3,112(s11)
80001d88:	07ddaa23          	sw	t4,116(s11)
80001d8c:	07edac23          	sw	t5,120(s11)
80001d90:	07fdae23          	sw	t6,124(s11)
80001d94:	34202ff3          	csrr	t6,mcause
80001d98:	01ffdf93          	srli	t6,t6,0x1f
80001d9c:	000f8363          	beqz	t6,80001da2 <mmode_intr_vector_11+0x96>
80001da0:	a965                	j	80002258 <mmode_intr_handler>
80001da2:	00000397          	auipc	t2,0x0
80001da6:	8fa38393          	addi	t2,t2,-1798 # 8000169c <test_done>
80001daa:	00038067          	jr	t2

80001dae <mmode_intr_vector_12>:
80001dae:	340d9df3          	csrrw	s11,mscratch,s11
80001db2:	00068db3          	add	s11,a3,zero
80001db6:	f84d8d93          	addi	s11,s11,-124
80001dba:	001da223          	sw	ra,4(s11)
80001dbe:	002da423          	sw	sp,8(s11)
80001dc2:	003da623          	sw	gp,12(s11)
80001dc6:	004da823          	sw	tp,16(s11)
80001dca:	005daa23          	sw	t0,20(s11)
80001dce:	006dac23          	sw	t1,24(s11)
80001dd2:	007dae23          	sw	t2,28(s11)
80001dd6:	028da023          	sw	s0,32(s11)
80001dda:	029da223          	sw	s1,36(s11)
80001dde:	02ada423          	sw	a0,40(s11)
80001de2:	02bda623          	sw	a1,44(s11)
80001de6:	02cda823          	sw	a2,48(s11)
80001dea:	02ddaa23          	sw	a3,52(s11)
80001dee:	02edac23          	sw	a4,56(s11)
80001df2:	02fdae23          	sw	a5,60(s11)
80001df6:	050da023          	sw	a6,64(s11)
80001dfa:	051da223          	sw	a7,68(s11)
80001dfe:	052da423          	sw	s2,72(s11)
80001e02:	053da623          	sw	s3,76(s11)
80001e06:	054da823          	sw	s4,80(s11)
80001e0a:	055daa23          	sw	s5,84(s11)
80001e0e:	056dac23          	sw	s6,88(s11)
80001e12:	057dae23          	sw	s7,92(s11)
80001e16:	078da023          	sw	s8,96(s11)
80001e1a:	079da223          	sw	s9,100(s11)
80001e1e:	07ada423          	sw	s10,104(s11)
80001e22:	07bda623          	sw	s11,108(s11)
80001e26:	07cda823          	sw	t3,112(s11)
80001e2a:	07ddaa23          	sw	t4,116(s11)
80001e2e:	07edac23          	sw	t5,120(s11)
80001e32:	07fdae23          	sw	t6,124(s11)
80001e36:	34202ff3          	csrr	t6,mcause
80001e3a:	01ffdf93          	srli	t6,t6,0x1f
80001e3e:	000f8363          	beqz	t6,80001e44 <mmode_intr_vector_12+0x96>
80001e42:	a919                	j	80002258 <mmode_intr_handler>
80001e44:	00000397          	auipc	t2,0x0
80001e48:	85838393          	addi	t2,t2,-1960 # 8000169c <test_done>
80001e4c:	00038067          	jr	t2

80001e50 <mmode_intr_vector_13>:
80001e50:	340d9df3          	csrrw	s11,mscratch,s11
80001e54:	00068db3          	add	s11,a3,zero
80001e58:	f84d8d93          	addi	s11,s11,-124
80001e5c:	001da223          	sw	ra,4(s11)
80001e60:	002da423          	sw	sp,8(s11)
80001e64:	003da623          	sw	gp,12(s11)
80001e68:	004da823          	sw	tp,16(s11)
80001e6c:	005daa23          	sw	t0,20(s11)
80001e70:	006dac23          	sw	t1,24(s11)
80001e74:	007dae23          	sw	t2,28(s11)
80001e78:	028da023          	sw	s0,32(s11)
80001e7c:	029da223          	sw	s1,36(s11)
80001e80:	02ada423          	sw	a0,40(s11)
80001e84:	02bda623          	sw	a1,44(s11)
80001e88:	02cda823          	sw	a2,48(s11)
80001e8c:	02ddaa23          	sw	a3,52(s11)
80001e90:	02edac23          	sw	a4,56(s11)
80001e94:	02fdae23          	sw	a5,60(s11)
80001e98:	050da023          	sw	a6,64(s11)
80001e9c:	051da223          	sw	a7,68(s11)
80001ea0:	052da423          	sw	s2,72(s11)
80001ea4:	053da623          	sw	s3,76(s11)
80001ea8:	054da823          	sw	s4,80(s11)
80001eac:	055daa23          	sw	s5,84(s11)
80001eb0:	056dac23          	sw	s6,88(s11)
80001eb4:	057dae23          	sw	s7,92(s11)
80001eb8:	078da023          	sw	s8,96(s11)
80001ebc:	079da223          	sw	s9,100(s11)
80001ec0:	07ada423          	sw	s10,104(s11)
80001ec4:	07bda623          	sw	s11,108(s11)
80001ec8:	07cda823          	sw	t3,112(s11)
80001ecc:	07ddaa23          	sw	t4,116(s11)
80001ed0:	07edac23          	sw	t5,120(s11)
80001ed4:	07fdae23          	sw	t6,124(s11)
80001ed8:	34202ff3          	csrr	t6,mcause
80001edc:	01ffdf93          	srli	t6,t6,0x1f
80001ee0:	000f8363          	beqz	t6,80001ee6 <mmode_intr_vector_13+0x96>
80001ee4:	ae95                	j	80002258 <mmode_intr_handler>
80001ee6:	fffff397          	auipc	t2,0xfffff
80001eea:	7b638393          	addi	t2,t2,1974 # 8000169c <test_done>
80001eee:	00038067          	jr	t2

80001ef2 <mmode_intr_vector_14>:
80001ef2:	340d9df3          	csrrw	s11,mscratch,s11
80001ef6:	00068db3          	add	s11,a3,zero
80001efa:	f84d8d93          	addi	s11,s11,-124
80001efe:	001da223          	sw	ra,4(s11)
80001f02:	002da423          	sw	sp,8(s11)
80001f06:	003da623          	sw	gp,12(s11)
80001f0a:	004da823          	sw	tp,16(s11)
80001f0e:	005daa23          	sw	t0,20(s11)
80001f12:	006dac23          	sw	t1,24(s11)
80001f16:	007dae23          	sw	t2,28(s11)
80001f1a:	028da023          	sw	s0,32(s11)
80001f1e:	029da223          	sw	s1,36(s11)
80001f22:	02ada423          	sw	a0,40(s11)
80001f26:	02bda623          	sw	a1,44(s11)
80001f2a:	02cda823          	sw	a2,48(s11)
80001f2e:	02ddaa23          	sw	a3,52(s11)
80001f32:	02edac23          	sw	a4,56(s11)
80001f36:	02fdae23          	sw	a5,60(s11)
80001f3a:	050da023          	sw	a6,64(s11)
80001f3e:	051da223          	sw	a7,68(s11)
80001f42:	052da423          	sw	s2,72(s11)
80001f46:	053da623          	sw	s3,76(s11)
80001f4a:	054da823          	sw	s4,80(s11)
80001f4e:	055daa23          	sw	s5,84(s11)
80001f52:	056dac23          	sw	s6,88(s11)
80001f56:	057dae23          	sw	s7,92(s11)
80001f5a:	078da023          	sw	s8,96(s11)
80001f5e:	079da223          	sw	s9,100(s11)
80001f62:	07ada423          	sw	s10,104(s11)
80001f66:	07bda623          	sw	s11,108(s11)
80001f6a:	07cda823          	sw	t3,112(s11)
80001f6e:	07ddaa23          	sw	t4,116(s11)
80001f72:	07edac23          	sw	t5,120(s11)
80001f76:	07fdae23          	sw	t6,124(s11)
80001f7a:	34202ff3          	csrr	t6,mcause
80001f7e:	01ffdf93          	srli	t6,t6,0x1f
80001f82:	000f8363          	beqz	t6,80001f88 <mmode_intr_vector_14+0x96>
80001f86:	acc9                	j	80002258 <mmode_intr_handler>
80001f88:	fffff397          	auipc	t2,0xfffff
80001f8c:	71438393          	addi	t2,t2,1812 # 8000169c <test_done>
80001f90:	00038067          	jr	t2

80001f94 <mmode_intr_vector_15>:
80001f94:	340d9df3          	csrrw	s11,mscratch,s11
80001f98:	00068db3          	add	s11,a3,zero
80001f9c:	f84d8d93          	addi	s11,s11,-124
80001fa0:	001da223          	sw	ra,4(s11)
80001fa4:	002da423          	sw	sp,8(s11)
80001fa8:	003da623          	sw	gp,12(s11)
80001fac:	004da823          	sw	tp,16(s11)
80001fb0:	005daa23          	sw	t0,20(s11)
80001fb4:	006dac23          	sw	t1,24(s11)
80001fb8:	007dae23          	sw	t2,28(s11)
80001fbc:	028da023          	sw	s0,32(s11)
80001fc0:	029da223          	sw	s1,36(s11)
80001fc4:	02ada423          	sw	a0,40(s11)
80001fc8:	02bda623          	sw	a1,44(s11)
80001fcc:	02cda823          	sw	a2,48(s11)
80001fd0:	02ddaa23          	sw	a3,52(s11)
80001fd4:	02edac23          	sw	a4,56(s11)
80001fd8:	02fdae23          	sw	a5,60(s11)
80001fdc:	050da023          	sw	a6,64(s11)
80001fe0:	051da223          	sw	a7,68(s11)
80001fe4:	052da423          	sw	s2,72(s11)
80001fe8:	053da623          	sw	s3,76(s11)
80001fec:	054da823          	sw	s4,80(s11)
80001ff0:	055daa23          	sw	s5,84(s11)
80001ff4:	056dac23          	sw	s6,88(s11)
80001ff8:	057dae23          	sw	s7,92(s11)
80001ffc:	078da023          	sw	s8,96(s11)
80002000:	079da223          	sw	s9,100(s11)
80002004:	07ada423          	sw	s10,104(s11)
80002008:	07bda623          	sw	s11,108(s11)
8000200c:	07cda823          	sw	t3,112(s11)
80002010:	07ddaa23          	sw	t4,116(s11)
80002014:	07edac23          	sw	t5,120(s11)
80002018:	07fdae23          	sw	t6,124(s11)
8000201c:	34202ff3          	csrr	t6,mcause
80002020:	01ffdf93          	srli	t6,t6,0x1f
80002024:	000f8363          	beqz	t6,8000202a <mmode_intr_vector_15+0x96>
80002028:	ac05                	j	80002258 <mmode_intr_handler>
8000202a:	fffff397          	auipc	t2,0xfffff
8000202e:	67238393          	addi	t2,t2,1650 # 8000169c <test_done>
80002032:	00038067          	jr	t2
80002036:	00000013          	nop
8000203a:	00000013          	nop
8000203e:	0001                	nop

80002040 <mtvec_handler>:
80002040:	0400006f          	j	80002080 <mmode_exception_handler>
80002044:	e6aff06f          	j	800016ae <mmode_intr_vector_1>
80002048:	f0aff06f          	j	80001752 <mmode_intr_vector_2>
8000204c:	faaff06f          	j	800017f6 <mmode_intr_vector_3>
80002050:	84bff06f          	j	8000189a <mmode_intr_vector_4>
80002054:	8ebff06f          	j	8000193e <mmode_intr_vector_5>
80002058:	98bff06f          	j	800019e2 <mmode_intr_vector_6>
8000205c:	a29ff06f          	j	80001a84 <mmode_intr_vector_7>
80002060:	ac7ff06f          	j	80001b26 <mmode_intr_vector_8>
80002064:	b65ff06f          	j	80001bc8 <mmode_intr_vector_9>
80002068:	c03ff06f          	j	80001c6a <mmode_intr_vector_10>
8000206c:	ca1ff06f          	j	80001d0c <mmode_intr_vector_11>
80002070:	d3fff06f          	j	80001dae <mmode_intr_vector_12>
80002074:	dddff06f          	j	80001e50 <mmode_intr_vector_13>
80002078:	e7bff06f          	j	80001ef2 <mmode_intr_vector_14>
8000207c:	f19ff06f          	j	80001f94 <mmode_intr_vector_15>

80002080 <mmode_exception_handler>:
80002080:	340d9df3          	csrrw	s11,mscratch,s11
80002084:	00068db3          	add	s11,a3,zero
80002088:	f84d8d93          	addi	s11,s11,-124
8000208c:	001da223          	sw	ra,4(s11)
80002090:	002da423          	sw	sp,8(s11)
80002094:	003da623          	sw	gp,12(s11)
80002098:	004da823          	sw	tp,16(s11)
8000209c:	005daa23          	sw	t0,20(s11)
800020a0:	006dac23          	sw	t1,24(s11)
800020a4:	007dae23          	sw	t2,28(s11)
800020a8:	028da023          	sw	s0,32(s11)
800020ac:	029da223          	sw	s1,36(s11)
800020b0:	02ada423          	sw	a0,40(s11)
800020b4:	02bda623          	sw	a1,44(s11)
800020b8:	02cda823          	sw	a2,48(s11)
800020bc:	02ddaa23          	sw	a3,52(s11)
800020c0:	02edac23          	sw	a4,56(s11)
800020c4:	02fdae23          	sw	a5,60(s11)
800020c8:	050da023          	sw	a6,64(s11)
800020cc:	051da223          	sw	a7,68(s11)
800020d0:	052da423          	sw	s2,72(s11)
800020d4:	053da623          	sw	s3,76(s11)
800020d8:	054da823          	sw	s4,80(s11)
800020dc:	055daa23          	sw	s5,84(s11)
800020e0:	056dac23          	sw	s6,88(s11)
800020e4:	057dae23          	sw	s7,92(s11)
800020e8:	078da023          	sw	s8,96(s11)
800020ec:	079da223          	sw	s9,100(s11)
800020f0:	07ada423          	sw	s10,104(s11)
800020f4:	07bda623          	sw	s11,108(s11)
800020f8:	07cda823          	sw	t3,112(s11)
800020fc:	07ddaa23          	sw	t4,116(s11)
80002100:	07edac23          	sw	t5,120(s11)
80002104:	07fdae23          	sw	t6,124(s11)
80002108:	34102ff3          	csrr	t6,mepc
8000210c:	34202ff3          	csrr	t6,mcause
80002110:	47ad                	li	a5,11
80002112:	00ff8d63          	beq	t6,a5,8000212c <ecall_handler>
80002116:	4789                	li	a5,2
80002118:	0aff8463          	beq	t6,a5,800021c0 <illegal_instr_handler>
8000211c:	343027f3          	csrr	a5,mtval
80002120:	fffff397          	auipc	t2,0xfffff
80002124:	57c38393          	addi	t2,t2,1404 # 8000169c <test_done>
80002128:	000380e7          	jalr	t2

8000212c <ecall_handler>:
8000212c:	ffffef97          	auipc	t6,0xffffe
80002130:	ed4f8f93          	addi	t6,t6,-300 # 80000000 <_start>
80002134:	000fa023          	sw	zero,0(t6)
80002138:	001fa223          	sw	ra,4(t6)
8000213c:	002fa423          	sw	sp,8(t6)
80002140:	003fa623          	sw	gp,12(t6)
80002144:	004fa823          	sw	tp,16(t6)
80002148:	005faa23          	sw	t0,20(t6)
8000214c:	006fac23          	sw	t1,24(t6)
80002150:	007fae23          	sw	t2,28(t6)
80002154:	028fa023          	sw	s0,32(t6)
80002158:	029fa223          	sw	s1,36(t6)
8000215c:	02afa423          	sw	a0,40(t6)
80002160:	02bfa623          	sw	a1,44(t6)
80002164:	02cfa823          	sw	a2,48(t6)
80002168:	02dfaa23          	sw	a3,52(t6)
8000216c:	02efac23          	sw	a4,56(t6)
80002170:	02ffae23          	sw	a5,60(t6)
80002174:	050fa023          	sw	a6,64(t6)
80002178:	051fa223          	sw	a7,68(t6)
8000217c:	052fa423          	sw	s2,72(t6)
80002180:	053fa623          	sw	s3,76(t6)
80002184:	054fa823          	sw	s4,80(t6)
80002188:	055faa23          	sw	s5,84(t6)
8000218c:	056fac23          	sw	s6,88(t6)
80002190:	057fae23          	sw	s7,92(t6)
80002194:	078fa023          	sw	s8,96(t6)
80002198:	079fa223          	sw	s9,100(t6)
8000219c:	07afa423          	sw	s10,104(t6)
800021a0:	07bfa623          	sw	s11,108(t6)
800021a4:	07cfa823          	sw	t3,112(t6)
800021a8:	07dfaa23          	sw	t4,116(t6)
800021ac:	07efac23          	sw	t5,120(t6)
800021b0:	07ffae23          	sw	t6,124(t6)
800021b4:	fffff397          	auipc	t2,0xfffff
800021b8:	4ee38393          	addi	t2,t2,1262 # 800016a2 <write_tohost>
800021bc:	00038067          	jr	t2

800021c0 <illegal_instr_handler>:
800021c0:	34102ff3          	csrr	t6,mepc
800021c4:	0f91                	addi	t6,t6,4
800021c6:	341f9073          	csrw	mepc,t6
800021ca:	004da083          	lw	ra,4(s11)
800021ce:	008da103          	lw	sp,8(s11)
800021d2:	00cda183          	lw	gp,12(s11)
800021d6:	010da203          	lw	tp,16(s11)
800021da:	014da283          	lw	t0,20(s11)
800021de:	018da303          	lw	t1,24(s11)
800021e2:	01cda383          	lw	t2,28(s11)
800021e6:	020da403          	lw	s0,32(s11)
800021ea:	024da483          	lw	s1,36(s11)
800021ee:	028da503          	lw	a0,40(s11)
800021f2:	02cda583          	lw	a1,44(s11)
800021f6:	030da603          	lw	a2,48(s11)
800021fa:	034da683          	lw	a3,52(s11)
800021fe:	038da703          	lw	a4,56(s11)
80002202:	03cda783          	lw	a5,60(s11)
80002206:	040da803          	lw	a6,64(s11)
8000220a:	044da883          	lw	a7,68(s11)
8000220e:	048da903          	lw	s2,72(s11)
80002212:	04cda983          	lw	s3,76(s11)
80002216:	050daa03          	lw	s4,80(s11)
8000221a:	054daa83          	lw	s5,84(s11)
8000221e:	058dab03          	lw	s6,88(s11)
80002222:	05cdab83          	lw	s7,92(s11)
80002226:	060dac03          	lw	s8,96(s11)
8000222a:	064dac83          	lw	s9,100(s11)
8000222e:	068dad03          	lw	s10,104(s11)
80002232:	06cdad83          	lw	s11,108(s11)
80002236:	070dae03          	lw	t3,112(s11)
8000223a:	074dae83          	lw	t4,116(s11)
8000223e:	078daf03          	lw	t5,120(s11)
80002242:	07cdaf83          	lw	t6,124(s11)
80002246:	07cd8d93          	addi	s11,s11,124
8000224a:	000d86b3          	add	a3,s11,zero
8000224e:	340d9df3          	csrrw	s11,mscratch,s11
80002252:	30200073          	mret

80002256 <pt_fault_handler>:
80002256:	0001                	nop

80002258 <mmode_intr_handler>:
80002258:	30002ff3          	csrr	t6,mstatus
8000225c:	30402ff3          	csrr	t6,mie
80002260:	34402ff3          	csrr	t6,mip
80002264:	344fbff3          	csrrc	t6,mip,t6
80002268:	004da083          	lw	ra,4(s11)
8000226c:	008da103          	lw	sp,8(s11)
80002270:	00cda183          	lw	gp,12(s11)
80002274:	010da203          	lw	tp,16(s11)
80002278:	014da283          	lw	t0,20(s11)
8000227c:	018da303          	lw	t1,24(s11)
80002280:	01cda383          	lw	t2,28(s11)
80002284:	020da403          	lw	s0,32(s11)
80002288:	024da483          	lw	s1,36(s11)
8000228c:	028da503          	lw	a0,40(s11)
80002290:	02cda583          	lw	a1,44(s11)
80002294:	030da603          	lw	a2,48(s11)
80002298:	034da683          	lw	a3,52(s11)
8000229c:	038da703          	lw	a4,56(s11)
800022a0:	03cda783          	lw	a5,60(s11)
800022a4:	040da803          	lw	a6,64(s11)
800022a8:	044da883          	lw	a7,68(s11)
800022ac:	048da903          	lw	s2,72(s11)
800022b0:	04cda983          	lw	s3,76(s11)
800022b4:	050daa03          	lw	s4,80(s11)
800022b8:	054daa83          	lw	s5,84(s11)
800022bc:	058dab03          	lw	s6,88(s11)
800022c0:	05cdab83          	lw	s7,92(s11)
800022c4:	060dac03          	lw	s8,96(s11)
800022c8:	064dac83          	lw	s9,100(s11)
800022cc:	068dad03          	lw	s10,104(s11)
800022d0:	06cdad83          	lw	s11,108(s11)
800022d4:	070dae03          	lw	t3,112(s11)
800022d8:	074dae83          	lw	t4,116(s11)
800022dc:	078daf03          	lw	t5,120(s11)
800022e0:	07cdaf83          	lw	t6,124(s11)
800022e4:	07cd8d93          	addi	s11,s11,124
800022e8:	000d86b3          	add	a3,s11,zero
800022ec:	340d9df3          	csrrw	s11,mscratch,s11
800022f0:	30200073          	mret

800022f4 <kernel_instr_end>:
800022f4:	0001                	nop
800022f6:	0001                	nop

800022f8 <kernel_data_start>:
800022f8:	0000                	unimp
	...
