 80000000 595552b7 59555000  lui      x5, 0x59555
 80000004 55528293 59555555  addi     x5, x5, 1365
 80000008 7c029073 59555555  csrrw    x0, mrac, x5
 8000000c 70041117 f004100c  auipc    x2, 0x70041
 80000010 01410113 f0041020  addi     x2, x2, 20
 80000014 0ba000ef 80000018  jal      x1, . + 0xba
 800000ce     7179 f0040ff0  c.addi16sp -0x3
 800000d0     d606 80000018  c.swsp   x1, 0x2c
 800000d2     d422 00000000  c.swsp   x8, 0x28
 800000d4     1800 f0041020  c.addi4spn  x8, 0xc
 800000d6 f00407b7 f0040000  lui      x15, -0xffc0
 800000da 00078793 f0040000  addi     x15, x15, 0
 800000de     438c 00000001  c.lw     x11, 0x0
 800000e0     43d0 00000014  c.lw     x12, 0x4
 800000e2     4794 00000006  c.lw     x13, 0x8
 800000e4     47d8 00000004  c.lw     x14, 0xc
 800000e6     4b9c 00000005  c.lw     x15, 0x10
 800000e8 fcb42c23 00000001  sw       x11, -0x28
 800000ec fcc42e23 00000014  sw       x12, -0x24
 800000f0 fed42023 00000006  sw       x13, -0x20
 800000f4 fee42223 00000004  sw       x14, -0x1c
 800000f8 fef42423 00000005  sw       x15, -0x18
 800000fc     4795 00000005  c.li     x15, 0x5
 800000fe fef42623 00000005  sw       x15, -0x14
 80000102 fd840793 f0040ff8  addi     x15, x8, -40
 80000106 fec42583 00000005  lw       x11, -0x14
 8000010a     853e f0040ff8  c.mv     x10, x15
 8000010c     3f2d 8000010e  c.jal    . - 0xc6
 80000046     7179 f0040fc0  c.addi16sp -0x3
 80000048     d622 f0041020  c.swsp   x8, 0x2c
 8000004a     1800 f0040ff0  c.addi4spn  x8, 0xc
 8000004c fca42e23 f0040ff8  sw       x10, -0x24
 80000050 fcb42c23 00000005  sw       x11, -0x28
 80000054 fe042623 00000000  sw       x0, -0x14
 80000058 fe042423 00000000  sw       x0, -0x18
 8000005c     a8a1 00000000  c.j      . + 0x58
 800000b4 fd842783 00000005  lw       x15, -0x28
 800000b8     17fd 00000004  c.addi   x15, -0x1
 800000ba fe842703 00000000  lw       x14, -0x18
 800000be faf740e3 00000000  blt      x14, x15, . - 0x60
 8000005e fe842783 00000000  lw       x15, -0x18
 80000062     0785 00000001  c.addi   x15, 0x1
 80000064 fef42223 00000001  sw       x15, -0x1c
 80000068     a81d 00000000  c.j      . + 0x36
 8000009e fe442703 00000001  lw       x14, -0x1c
 800000a2 fd842783 00000005  lw       x15, -0x28
 800000a6 fcf742e3 00000000  blt      x14, x15, . - 0x3c
 8000006a fe842783 00000000  lw       x15, -0x18
 8000006e     078a 00000000  c.slli   x15, 2
 80000070 fdc42703 f0040ff8  lw       x14, -0x24
 80000074     97ba f0040ff8  c.add    x15, x14
 80000076     4398 00000001  c.lw     x14, 0x0
 80000078 fe442783 00000001  lw       x15, -0x1c
 8000007c     078a 00000004  c.slli   x15, 2
 8000007e fdc42683 f0040ff8  lw       x13, -0x24
 80000082     97b6 f0040ffc  c.add    x15, x13
 80000084     439c 00000014  c.lw     x15, 0x0
 80000086 00e7d763 00000000  bge      x15, x14, . + 0xe
 80000094 fe442783 00000001  lw       x15, -0x1c
 80000098     0785 00000002  c.addi   x15, 0x1
 8000009a fef42223 00000002  sw       x15, -0x1c
 8000009e fe442703 00000002  lw       x14, -0x1c
 800000a2 fd842783 00000005  lw       x15, -0x28
 800000a6 fcf742e3 00000000  blt      x14, x15, . - 0x3c
 8000006a fe842783 00000000  lw       x15, -0x18
 8000006e     078a 00000000  c.slli   x15, 2
 80000070 fdc42703 f0040ff8  lw       x14, -0x24
 80000074     97ba f0040ff8  c.add    x15, x14
 80000076     4398 00000001  c.lw     x14, 0x0
 80000078 fe442783 00000002  lw       x15, -0x1c
 8000007c     078a 00000008  c.slli   x15, 2
 8000007e fdc42683 f0040ff8  lw       x13, -0x24
 80000082     97b6 f0041000  c.add    x15, x13
 80000084     439c 00000006  c.lw     x15, 0x0
 80000086 00e7d763 00000000  bge      x15, x14, . + 0xe
 80000094 fe442783 00000002  lw       x15, -0x1c
 80000098     0785 00000003  c.addi   x15, 0x1
 8000009a fef42223 00000003  sw       x15, -0x1c
 8000009e fe442703 00000003  lw       x14, -0x1c
 800000a2 fd842783 00000005  lw       x15, -0x28
 800000a6 fcf742e3 00000000  blt      x14, x15, . - 0x3c
 8000006a fe842783 00000000  lw       x15, -0x18
 8000006e     078a 00000000  c.slli   x15, 2
 80000070 fdc42703 f0040ff8  lw       x14, -0x24
 80000074     97ba f0040ff8  c.add    x15, x14
 80000076     4398 00000001  c.lw     x14, 0x0
 80000078 fe442783 00000003  lw       x15, -0x1c
 8000007c     078a 0000000c  c.slli   x15, 2
 8000007e fdc42683 f0040ff8  lw       x13, -0x24
 80000082     97b6 f0041004  c.add    x15, x13
 80000084     439c 00000004  c.lw     x15, 0x0
 80000086 00e7d763 00000000  bge      x15, x14, . + 0xe
 80000094 fe442783 00000003  lw       x15, -0x1c
 80000098     0785 00000004  c.addi   x15, 0x1
 8000009a fef42223 00000004  sw       x15, -0x1c
 8000009e fe442703 00000004  lw       x14, -0x1c
 800000a2 fd842783 00000005  lw       x15, -0x28
 800000a6 fcf742e3 00000000  blt      x14, x15, . - 0x3c
 8000006a fe842783 00000000  lw       x15, -0x18
 8000006e     078a 00000000  c.slli   x15, 2
 80000070 fdc42703 f0040ff8  lw       x14, -0x24
 80000074     97ba f0040ff8  c.add    x15, x14
 80000076     4398 00000001  c.lw     x14, 0x0
 80000078 fe442783 00000004  lw       x15, -0x1c
 8000007c     078a 00000010  c.slli   x15, 2
 8000007e fdc42683 f0040ff8  lw       x13, -0x24
 80000082     97b6 f0041008  c.add    x15, x13
 80000084     439c 00000005  c.lw     x15, 0x0
 80000086 00e7d763 00000000  bge      x15, x14, . + 0xe
 80000094 fe442783 00000004  lw       x15, -0x1c
 80000098     0785 00000005  c.addi   x15, 0x1
 8000009a fef42223 00000005  sw       x15, -0x1c
 8000009e fe442703 00000005  lw       x14, -0x1c
 800000a2 fd842783 00000005  lw       x15, -0x28
 800000a6 fcf742e3 00000000  blt      x14, x15, . - 0x3c
 800000aa fe842783 00000000  lw       x15, -0x18
 800000ae     0785 00000001  c.addi   x15, 0x1
 800000b0 fef42423 00000001  sw       x15, -0x18
 800000b4 fd842783 00000005  lw       x15, -0x28
 800000b8     17fd 00000004  c.addi   x15, -0x1
 800000ba fe842703 00000001  lw       x14, -0x18
 800000be faf740e3 00000000  blt      x14, x15, . - 0x60
 8000005e fe842783 00000001  lw       x15, -0x18
 80000062     0785 00000002  c.addi   x15, 0x1
 80000064 fef42223 00000002  sw       x15, -0x1c
 80000068     a81d 00000000  c.j      . + 0x36
 8000009e fe442703 00000002  lw       x14, -0x1c
 800000a2 fd842783 00000005  lw       x15, -0x28
 800000a6 fcf742e3 00000000  blt      x14, x15, . - 0x3c
 8000006a fe842783 00000001  lw       x15, -0x18
 8000006e     078a 00000004  c.slli   x15, 2
 80000070 fdc42703 f0040ff8  lw       x14, -0x24
 80000074     97ba f0040ffc  c.add    x15, x14
 80000076     4398 00000014  c.lw     x14, 0x0
 80000078 fe442783 00000002  lw       x15, -0x1c
 8000007c     078a 00000008  c.slli   x15, 2
 8000007e fdc42683 f0040ff8  lw       x13, -0x24
 80000082     97b6 f0041000  c.add    x15, x13
 80000084     439c 00000006  c.lw     x15, 0x0
 80000086 00e7d763 00000000  bge      x15, x14, . + 0xe
 8000008a fec42783 00000000  lw       x15, -0x14
 8000008e     0785 00000001  c.addi   x15, 0x1
 80000090 fef42623 00000001  sw       x15, -0x14
 80000094 fe442783 00000002  lw       x15, -0x1c
 80000098     0785 00000003  c.addi   x15, 0x1
 8000009a fef42223 00000003  sw       x15, -0x1c
 8000009e fe442703 00000003  lw       x14, -0x1c
 800000a2 fd842783 00000005  lw       x15, -0x28
 800000a6 fcf742e3 00000000  blt      x14, x15, . - 0x3c
 8000006a fe842783 00000001  lw       x15, -0x18
 8000006e     078a 00000004  c.slli   x15, 2
 80000070 fdc42703 f0040ff8  lw       x14, -0x24
 80000074     97ba f0040ffc  c.add    x15, x14
 80000076     4398 00000014  c.lw     x14, 0x0
 80000078 fe442783 00000003  lw       x15, -0x1c
 8000007c     078a 0000000c  c.slli   x15, 2
 8000007e fdc42683 f0040ff8  lw       x13, -0x24
 80000082     97b6 f0041004  c.add    x15, x13
 80000084     439c 00000004  c.lw     x15, 0x0
 80000086 00e7d763 00000000  bge      x15, x14, . + 0xe
 8000008a fec42783 00000001  lw       x15, -0x14
 8000008e     0785 00000002  c.addi   x15, 0x1
 80000090 fef42623 00000002  sw       x15, -0x14
 80000094 fe442783 00000003  lw       x15, -0x1c
 80000098     0785 00000004  c.addi   x15, 0x1
 8000009a fef42223 00000004  sw       x15, -0x1c
 8000009e fe442703 00000004  lw       x14, -0x1c
 800000a2 fd842783 00000005  lw       x15, -0x28
 800000a6 fcf742e3 00000000  blt      x14, x15, . - 0x3c
 8000006a fe842783 00000001  lw       x15, -0x18
 8000006e     078a 00000004  c.slli   x15, 2
 80000070 fdc42703 f0040ff8  lw       x14, -0x24
 80000074     97ba f0040ffc  c.add    x15, x14
 80000076     4398 00000014  c.lw     x14, 0x0
 80000078 fe442783 00000004  lw       x15, -0x1c
 8000007c     078a 00000010  c.slli   x15, 2
 8000007e fdc42683 f0040ff8  lw       x13, -0x24
 80000082     97b6 f0041008  c.add    x15, x13
 80000084     439c 00000005  c.lw     x15, 0x0
 80000086 00e7d763 00000000  bge      x15, x14, . + 0xe
 8000008a fec42783 00000002  lw       x15, -0x14
 8000008e     0785 00000003  c.addi   x15, 0x1
 80000090 fef42623 00000003  sw       x15, -0x14
 80000094 fe442783 00000004  lw       x15, -0x1c
 80000098     0785 00000005  c.addi   x15, 0x1
 8000009a fef42223 00000005  sw       x15, -0x1c
 8000009e fe442703 00000005  lw       x14, -0x1c
 800000a2 fd842783 00000005  lw       x15, -0x28
 800000a6 fcf742e3 00000000  blt      x14, x15, . - 0x3c
 800000aa fe842783 00000001  lw       x15, -0x18
 800000ae     0785 00000002  c.addi   x15, 0x1
 800000b0 fef42423 00000002  sw       x15, -0x18
 800000b4 fd842783 00000005  lw       x15, -0x28
 800000b8     17fd 00000004  c.addi   x15, -0x1
 800000ba fe842703 00000002  lw       x14, -0x18
 800000be faf740e3 00000000  blt      x14, x15, . - 0x60
 8000005e fe842783 00000002  lw       x15, -0x18
 80000062     0785 00000003  c.addi   x15, 0x1
 80000064 fef42223 00000003  sw       x15, -0x1c
 80000068     a81d 00000000  c.j      . + 0x36
 8000009e fe442703 00000003  lw       x14, -0x1c
 800000a2 fd842783 00000005  lw       x15, -0x28
 800000a6 fcf742e3 00000000  blt      x14, x15, . - 0x3c
 8000006a fe842783 00000002  lw       x15, -0x18
 8000006e     078a 00000008  c.slli   x15, 2
 80000070 fdc42703 f0040ff8  lw       x14, -0x24
 80000074     97ba f0041000  c.add    x15, x14
 80000076     4398 00000006  c.lw     x14, 0x0
 80000078 fe442783 00000003  lw       x15, -0x1c
 8000007c     078a 0000000c  c.slli   x15, 2
 8000007e fdc42683 f0040ff8  lw       x13, -0x24
 80000082     97b6 f0041004  c.add    x15, x13
 80000084     439c 00000004  c.lw     x15, 0x0
 80000086 00e7d763 00000000  bge      x15, x14, . + 0xe
 8000008a fec42783 00000003  lw       x15, -0x14
 8000008e     0785 00000004  c.addi   x15, 0x1
 80000090 fef42623 00000004  sw       x15, -0x14
 80000094 fe442783 00000003  lw       x15, -0x1c
 80000098     0785 00000004  c.addi   x15, 0x1
 8000009a fef42223 00000004  sw       x15, -0x1c
 8000009e fe442703 00000004  lw       x14, -0x1c
 800000a2 fd842783 00000005  lw       x15, -0x28
 800000a6 fcf742e3 00000000  blt      x14, x15, . - 0x3c
 8000006a fe842783 00000002  lw       x15, -0x18
 8000006e     078a 00000008  c.slli   x15, 2
 80000070 fdc42703 f0040ff8  lw       x14, -0x24
 80000074     97ba f0041000  c.add    x15, x14
 80000076     4398 00000006  c.lw     x14, 0x0
 80000078 fe442783 00000004  lw       x15, -0x1c
 8000007c     078a 00000010  c.slli   x15, 2
 8000007e fdc42683 f0040ff8  lw       x13, -0x24
 80000082     97b6 f0041008  c.add    x15, x13
 80000084     439c 00000005  c.lw     x15, 0x0
 80000086 00e7d763 00000000  bge      x15, x14, . + 0xe
 8000008a fec42783 00000004  lw       x15, -0x14
 8000008e     0785 00000005  c.addi   x15, 0x1
 80000090 fef42623 00000005  sw       x15, -0x14
 80000094 fe442783 00000004  lw       x15, -0x1c
 80000098     0785 00000005  c.addi   x15, 0x1
 8000009a fef42223 00000005  sw       x15, -0x1c
 8000009e fe442703 00000005  lw       x14, -0x1c
 800000a2 fd842783 00000005  lw       x15, -0x28
 800000a6 fcf742e3 00000000  blt      x14, x15, . - 0x3c
 800000aa fe842783 00000002  lw       x15, -0x18
 800000ae     0785 00000003  c.addi   x15, 0x1
 800000b0 fef42423 00000003  sw       x15, -0x18
 800000b4 fd842783 00000005  lw       x15, -0x28
 800000b8     17fd 00000004  c.addi   x15, -0x1
 800000ba fe842703 00000003  lw       x14, -0x18
 800000be faf740e3 00000000  blt      x14, x15, . - 0x60
 8000005e fe842783 00000003  lw       x15, -0x18
 80000062     0785 00000004  c.addi   x15, 0x1
 80000064 fef42223 00000004  sw       x15, -0x1c
 80000068     a81d 00000000  c.j      . + 0x36
 8000009e fe442703 00000004  lw       x14, -0x1c
 800000a2 fd842783 00000005  lw       x15, -0x28
 800000a6 fcf742e3 00000000  blt      x14, x15, . - 0x3c
 8000006a fe842783 00000003  lw       x15, -0x18
 8000006e     078a 0000000c  c.slli   x15, 2
 80000070 fdc42703 f0040ff8  lw       x14, -0x24
 80000074     97ba f0041004  c.add    x15, x14
 80000076     4398 00000004  c.lw     x14, 0x0
 80000078 fe442783 00000004  lw       x15, -0x1c
 8000007c     078a 00000010  c.slli   x15, 2
 8000007e fdc42683 f0040ff8  lw       x13, -0x24
 80000082     97b6 f0041008  c.add    x15, x13
 80000084     439c 00000005  c.lw     x15, 0x0
 80000086 00e7d763 00000000  bge      x15, x14, . + 0xe
 80000094 fe442783 00000004  lw       x15, -0x1c
 80000098     0785 00000005  c.addi   x15, 0x1
 8000009a fef42223 00000005  sw       x15, -0x1c
 8000009e fe442703 00000005  lw       x14, -0x1c
 800000a2 fd842783 00000005  lw       x15, -0x28
 800000a6 fcf742e3 00000000  blt      x14, x15, . - 0x3c
 800000aa fe842783 00000003  lw       x15, -0x18
 800000ae     0785 00000004  c.addi   x15, 0x1
 800000b0 fef42423 00000004  sw       x15, -0x18
 800000b4 fd842783 00000005  lw       x15, -0x28
 800000b8     17fd 00000004  c.addi   x15, -0x1
 800000ba fe842703 00000004  lw       x14, -0x18
 800000be faf740e3 00000000  blt      x14, x15, . - 0x60
 800000c2 fec42783 00000005  lw       x15, -0x14
 800000c6     853e 00000005  c.mv     x10, x15
 800000c8     5432 f0041020  c.lwsp   x8, 0x2c
 800000ca     6145 f0040ff0  c.addi16sp 0x3
 800000cc     8082 00000000  c.jr     x1
 8000010e     0001 00000000  c.nop
 80000110     50b2 80000018  c.lwsp   x1, 0x2c
 80000112     5422 00000000  c.lwsp   x8, 0x28
 80000114     6145 f0041020  c.addi16sp 0x3
 80000116     8082 00000000  c.jr     x1
 80000018 50580297 d0580018  auipc    x5, 0x50580
 8000001c fe828293 d0580000  addi     x5, x5, -24
 80000020 0ff00313 000000ff  addi     x6, x0, 255
 80000024 00628023 000000ff  sb       x6, 0x0
