
towers.exe:     file format elf32-littleriscv


Disassembly of section .text.init:

80000000 <_start>:
80000000:	595552b7          	lui	t0,0x59555
80000004:	55528293          	addi	t0,t0,1365 # 59555555 <_start-0x26aaaaab>
80000008:	7c029073          	csrw	0x7c0,t0
8000000c:	70041117          	auipc	sp,0x70041
80000010:	03410113          	addi	sp,sp,52 # f0041040 <STACK>
80000014:	2141                	jal	80000494 <main>

80000016 <_finish>:
80000016:	50580297          	auipc	t0,0x50580
8000001a:	fea28293          	addi	t0,t0,-22 # d0580000 <tohost>
8000001e:	0ff00313          	li	t1,255
80000022:	00628023          	sb	t1,0(t0)
80000026:	4305                	li	t1,1
80000028:	0062a023          	sw	t1,0(t0)
8000002c:	fe0005e3          	beqz	zero,80000016 <_finish>
80000030:	0001                	nop
80000032:	0001                	nop
80000034:	0001                	nop
80000036:	0001                	nop
80000038:	0001                	nop
8000003a:	0001                	nop
8000003c:	0001                	nop
8000003e:	0001                	nop
80000040:	0001                	nop
80000042:	0001                	nop

Disassembly of section .text:

80000044 <list_getSize>:
80000044:	4108                	lw	a0,0(a0)
80000046:	8082                	ret

80000048 <list_init>:
80000048:	00052023          	sw	zero,0(a0)
8000004c:	00052223          	sw	zero,4(a0)
80000050:	8082                	ret

80000052 <list_push>:
80000052:	70040697          	auipc	a3,0x70040
80000056:	fe668693          	addi	a3,a3,-26 # f0040038 <g_nodeFreeList>
8000005a:	42dc                	lw	a5,4(a3)
8000005c:	4118                	lw	a4,0(a0)
8000005e:	43d0                	lw	a2,4(a5)
80000060:	0705                	addi	a4,a4,1
80000062:	c2d0                	sw	a2,4(a3)
80000064:	4154                	lw	a3,4(a0)
80000066:	c3d4                	sw	a3,4(a5)
80000068:	c15c                	sw	a5,4(a0)
8000006a:	c38c                	sw	a1,0(a5)
8000006c:	c118                	sw	a4,0(a0)
8000006e:	8082                	ret

80000070 <list_pop>:
80000070:	4158                	lw	a4,4(a0)
80000072:	87aa                	mv	a5,a0
80000074:	4114                	lw	a3,0(a0)
80000076:	434c                	lw	a1,4(a4)
80000078:	4308                	lw	a0,0(a4)
8000007a:	70040617          	auipc	a2,0x70040
8000007e:	fbe60613          	addi	a2,a2,-66 # f0040038 <g_nodeFreeList>
80000082:	c3cc                	sw	a1,4(a5)
80000084:	424c                	lw	a1,4(a2)
80000086:	16fd                	addi	a3,a3,-1
80000088:	c34c                	sw	a1,4(a4)
8000008a:	c258                	sw	a4,4(a2)
8000008c:	c394                	sw	a3,0(a5)
8000008e:	8082                	ret

80000090 <list_clear>:
80000090:	4118                	lw	a4,0(a0)
80000092:	02e05063          	blez	a4,800000b2 <list_clear+0x22>
80000096:	70040697          	auipc	a3,0x70040
8000009a:	fa268693          	addi	a3,a3,-94 # f0040038 <g_nodeFreeList>
8000009e:	415c                	lw	a5,4(a0)
800000a0:	177d                	addi	a4,a4,-1
800000a2:	43d0                	lw	a2,4(a5)
800000a4:	c150                	sw	a2,4(a0)
800000a6:	42d0                	lw	a2,4(a3)
800000a8:	c3d0                	sw	a2,4(a5)
800000aa:	c2dc                	sw	a5,4(a3)
800000ac:	fb6d                	bnez	a4,8000009e <list_clear+0xe>
800000ae:	00052023          	sw	zero,0(a0)
800000b2:	8082                	ret

800000b4 <towers_init>:
800000b4:	c10c                	sw	a1,0(a0)
800000b6:	00052223          	sw	zero,4(a0)
800000ba:	00052423          	sw	zero,8(a0)
800000be:	00052623          	sw	zero,12(a0)
800000c2:	00052823          	sw	zero,16(a0)
800000c6:	00052a23          	sw	zero,20(a0)
800000ca:	00052c23          	sw	zero,24(a0)
800000ce:	00052e23          	sw	zero,28(a0)
800000d2:	02b05963          	blez	a1,80000104 <towers_init+0x50>
800000d6:	70040817          	auipc	a6,0x70040
800000da:	f6280813          	addi	a6,a6,-158 # f0040038 <g_nodeFreeList>
800000de:	00482783          	lw	a5,4(a6)
800000e2:	872e                	mv	a4,a1
800000e4:	4681                	li	a3,0
800000e6:	a019                	j	800000ec <towers_init+0x38>
800000e8:	86be                	mv	a3,a5
800000ea:	87b2                	mv	a5,a2
800000ec:	43d0                	lw	a2,4(a5)
800000ee:	c398                	sw	a4,0(a5)
800000f0:	c3d4                	sw	a3,4(a5)
800000f2:	177d                	addi	a4,a4,-1
800000f4:	fb75                	bnez	a4,800000e8 <towers_init+0x34>
800000f6:	00c82223          	sw	a2,4(a6)
800000fa:	c3d4                	sw	a3,4(a5)
800000fc:	c55c                	sw	a5,12(a0)
800000fe:	4705                	li	a4,1
80000100:	c398                	sw	a4,0(a5)
80000102:	c50c                	sw	a1,8(a0)
80000104:	8082                	ret

80000106 <towers_clear>:
80000106:	4518                	lw	a4,8(a0)
80000108:	02e05763          	blez	a4,80000136 <towers_clear+0x30>
8000010c:	70040817          	auipc	a6,0x70040
80000110:	f2c80813          	addi	a6,a6,-212 # f0040038 <g_nodeFreeList>
80000114:	455c                	lw	a5,12(a0)
80000116:	00482683          	lw	a3,4(a6)
8000011a:	a019                	j	80000120 <towers_clear+0x1a>
8000011c:	87b2                	mv	a5,a2
8000011e:	86ae                	mv	a3,a1
80000120:	43d0                	lw	a2,4(a5)
80000122:	177d                	addi	a4,a4,-1
80000124:	c3d4                	sw	a3,4(a5)
80000126:	85be                	mv	a1,a5
80000128:	fb75                	bnez	a4,8000011c <towers_clear+0x16>
8000012a:	c550                	sw	a2,12(a0)
8000012c:	c3d4                	sw	a3,4(a5)
8000012e:	00f82223          	sw	a5,4(a6)
80000132:	00052423          	sw	zero,8(a0)
80000136:	4918                	lw	a4,16(a0)
80000138:	02e05763          	blez	a4,80000166 <towers_clear+0x60>
8000013c:	70040817          	auipc	a6,0x70040
80000140:	efc80813          	addi	a6,a6,-260 # f0040038 <g_nodeFreeList>
80000144:	495c                	lw	a5,20(a0)
80000146:	00482683          	lw	a3,4(a6)
8000014a:	a019                	j	80000150 <towers_clear+0x4a>
8000014c:	87b2                	mv	a5,a2
8000014e:	86ae                	mv	a3,a1
80000150:	43d0                	lw	a2,4(a5)
80000152:	177d                	addi	a4,a4,-1
80000154:	c3d4                	sw	a3,4(a5)
80000156:	85be                	mv	a1,a5
80000158:	fb75                	bnez	a4,8000014c <towers_clear+0x46>
8000015a:	c950                	sw	a2,20(a0)
8000015c:	c3d4                	sw	a3,4(a5)
8000015e:	00f82223          	sw	a5,4(a6)
80000162:	00052823          	sw	zero,16(a0)
80000166:	4d14                	lw	a3,24(a0)
80000168:	02d05263          	blez	a3,8000018c <towers_clear+0x86>
8000016c:	70040817          	auipc	a6,0x70040
80000170:	ecc80813          	addi	a6,a6,-308 # f0040038 <g_nodeFreeList>
80000174:	4d5c                	lw	a5,28(a0)
80000176:	00482703          	lw	a4,4(a6)
8000017a:	a011                	j	8000017e <towers_clear+0x78>
8000017c:	87b2                	mv	a5,a2
8000017e:	43d0                	lw	a2,4(a5)
80000180:	16fd                	addi	a3,a3,-1
80000182:	c3d8                	sw	a4,4(a5)
80000184:	873e                	mv	a4,a5
80000186:	fafd                	bnez	a3,8000017c <towers_clear+0x76>
80000188:	00f82223          	sw	a5,4(a6)
8000018c:	410c                	lw	a1,0(a0)
8000018e:	00052223          	sw	zero,4(a0)
80000192:	00052423          	sw	zero,8(a0)
80000196:	00052623          	sw	zero,12(a0)
8000019a:	00052823          	sw	zero,16(a0)
8000019e:	00052a23          	sw	zero,20(a0)
800001a2:	00052c23          	sw	zero,24(a0)
800001a6:	00052e23          	sw	zero,28(a0)
800001aa:	02b05963          	blez	a1,800001dc <towers_clear+0xd6>
800001ae:	70040817          	auipc	a6,0x70040
800001b2:	e8a80813          	addi	a6,a6,-374 # f0040038 <g_nodeFreeList>
800001b6:	00482783          	lw	a5,4(a6)
800001ba:	872e                	mv	a4,a1
800001bc:	4681                	li	a3,0
800001be:	a019                	j	800001c4 <towers_clear+0xbe>
800001c0:	86be                	mv	a3,a5
800001c2:	87b2                	mv	a5,a2
800001c4:	43d0                	lw	a2,4(a5)
800001c6:	c398                	sw	a4,0(a5)
800001c8:	c3d4                	sw	a3,4(a5)
800001ca:	177d                	addi	a4,a4,-1
800001cc:	fb75                	bnez	a4,800001c0 <towers_clear+0xba>
800001ce:	00c82223          	sw	a2,4(a6)
800001d2:	c3d4                	sw	a3,4(a5)
800001d4:	c55c                	sw	a5,12(a0)
800001d6:	4705                	li	a4,1
800001d8:	c398                	sw	a4,0(a5)
800001da:	c50c                	sw	a1,8(a0)
800001dc:	8082                	ret

800001de <towers_solve_h>:
800001de:	715d                	addi	sp,sp,-80
800001e0:	de4e                	sw	s3,60(sp)
800001e2:	dc52                	sw	s4,56(sp)
800001e4:	d65e                	sw	s7,44(sp)
800001e6:	ce6e                	sw	s11,28(sp)
800001e8:	c686                	sw	ra,76(sp)
800001ea:	c4a2                	sw	s0,72(sp)
800001ec:	c2a6                	sw	s1,68(sp)
800001ee:	c0ca                	sw	s2,64(sp)
800001f0:	da56                	sw	s5,52(sp)
800001f2:	d85a                	sw	s6,48(sp)
800001f4:	d462                	sw	s8,40(sp)
800001f6:	d266                	sw	s9,36(sp)
800001f8:	d06a                	sw	s10,32(sp)
800001fa:	c22e                	sw	a1,4(sp)
800001fc:	4785                	li	a5,1
800001fe:	c432                	sw	a2,8(sp)
80000200:	c63a                	sw	a4,12(sp)
80000202:	8daa                	mv	s11,a0
80000204:	70040a17          	auipc	s4,0x70040
80000208:	e34a0a13          	addi	s4,s4,-460 # f0040038 <g_nodeFreeList>
8000020c:	8bb6                	mv	s7,a3
8000020e:	4985                	li	s3,1
80000210:	1cf58b63          	beq	a1,a5,800003e6 <towers_solve_h+0x208>
80000214:	4792                	lw	a5,4(sp)
80000216:	17fd                	addi	a5,a5,-1
80000218:	c23e                	sw	a5,4(sp)
8000021a:	15378b63          	beq	a5,s3,80000370 <towers_solve_h+0x192>
8000021e:	4792                	lw	a5,4(sp)
80000220:	4d32                	lw	s10,12(sp)
80000222:	4b22                	lw	s6,8(sp)
80000224:	c03e                	sw	a5,0(sp)
80000226:	4782                	lw	a5,0(sp)
80000228:	17fd                	addi	a5,a5,-1
8000022a:	c03e                	sw	a5,0(sp)
8000022c:	0b378f63          	beq	a5,s3,800002ea <towers_solve_h+0x10c>
80000230:	4a82                	lw	s5,0(sp)
80000232:	8c5e                	mv	s8,s7
80000234:	8cda                	mv	s9,s6
80000236:	1afd                	addi	s5,s5,-1
80000238:	033a8863          	beq	s5,s3,80000268 <towers_solve_h+0x8a>
8000023c:	846a                	mv	s0,s10
8000023e:	8966                	mv	s2,s9
80000240:	84d6                	mv	s1,s5
80000242:	14fd                	addi	s1,s1,-1
80000244:	85a6                	mv	a1,s1
80000246:	856e                	mv	a0,s11
80000248:	8722                	mv	a4,s0
8000024a:	86e2                	mv	a3,s8
8000024c:	864a                	mv	a2,s2
8000024e:	3f41                	jal	800001de <towers_solve_h>
80000250:	8762                	mv	a4,s8
80000252:	86a2                	mv	a3,s0
80000254:	864a                	mv	a2,s2
80000256:	4585                	li	a1,1
80000258:	856e                	mv	a0,s11
8000025a:	3751                	jal	800001de <towers_solve_h>
8000025c:	874a                	mv	a4,s2
8000025e:	01348663          	beq	s1,s3,8000026a <towers_solve_h+0x8c>
80000262:	8922                	mv	s2,s0
80000264:	843a                	mv	s0,a4
80000266:	bff1                	j	80000242 <towers_solve_h+0x64>
80000268:	8466                	mv	s0,s9
8000026a:	4054                	lw	a3,4(s0)
8000026c:	4018                	lw	a4,0(s0)
8000026e:	004da603          	lw	a2,4(s11)
80000272:	42cc                	lw	a1,4(a3)
80000274:	0006a303          	lw	t1,0(a3)
80000278:	177d                	addi	a4,a4,-1
8000027a:	c04c                	sw	a1,4(s0)
8000027c:	004a2e03          	lw	t3,4(s4)
80000280:	c018                	sw	a4,0(s0)
80000282:	000c2583          	lw	a1,0(s8)
80000286:	01ca2223          	sw	t3,4(s4)
8000028a:	004c2703          	lw	a4,4(s8)
8000028e:	0585                	addi	a1,a1,1
80000290:	0609                	addi	a2,a2,2
80000292:	c2d8                	sw	a4,4(a3)
80000294:	00dc2223          	sw	a3,4(s8)
80000298:	004ca703          	lw	a4,4(s9)
8000029c:	0066a023          	sw	t1,0(a3)
800002a0:	00bc2023          	sw	a1,0(s8)
800002a4:	00472303          	lw	t1,4(a4)
800002a8:	000ca683          	lw	a3,0(s9)
800002ac:	430c                	lw	a1,0(a4)
800002ae:	006ca223          	sw	t1,4(s9)
800002b2:	004a2303          	lw	t1,4(s4)
800002b6:	16fd                	addi	a3,a3,-1
800002b8:	00dca023          	sw	a3,0(s9)
800002bc:	006a2223          	sw	t1,4(s4)
800002c0:	004d2303          	lw	t1,4(s10)
800002c4:	000d2683          	lw	a3,0(s10)
800002c8:	00672223          	sw	t1,4(a4)
800002cc:	00ed2223          	sw	a4,4(s10)
800002d0:	c30c                	sw	a1,0(a4)
800002d2:	00168713          	addi	a4,a3,1
800002d6:	00ed2023          	sw	a4,0(s10)
800002da:	00cda223          	sw	a2,4(s11)
800002de:	013a8963          	beq	s5,s3,800002f0 <towers_solve_h+0x112>
800002e2:	8766                	mv	a4,s9
800002e4:	8ce2                	mv	s9,s8
800002e6:	8c3a                	mv	s8,a4
800002e8:	b7b9                	j	80000236 <towers_solve_h+0x58>
800002ea:	004da603          	lw	a2,4(s11)
800002ee:	8c5a                	mv	s8,s6
800002f0:	004c2703          	lw	a4,4(s8)
800002f4:	000c2683          	lw	a3,0(s8)
800002f8:	0609                	addi	a2,a2,2
800002fa:	00472803          	lw	a6,4(a4)
800002fe:	430c                	lw	a1,0(a4)
80000300:	16fd                	addi	a3,a3,-1
80000302:	010c2223          	sw	a6,4(s8)
80000306:	004a2803          	lw	a6,4(s4)
8000030a:	00dc2023          	sw	a3,0(s8)
8000030e:	000d2683          	lw	a3,0(s10)
80000312:	010a2223          	sw	a6,4(s4)
80000316:	004d2783          	lw	a5,4(s10)
8000031a:	0685                	addi	a3,a3,1
8000031c:	c35c                	sw	a5,4(a4)
8000031e:	00ed2223          	sw	a4,4(s10)
80000322:	004b2783          	lw	a5,4(s6)
80000326:	c30c                	sw	a1,0(a4)
80000328:	00dd2023          	sw	a3,0(s10)
8000032c:	43cc                	lw	a1,4(a5)
8000032e:	000b2703          	lw	a4,0(s6)
80000332:	4394                	lw	a3,0(a5)
80000334:	00bb2223          	sw	a1,4(s6)
80000338:	004a2583          	lw	a1,4(s4)
8000033c:	177d                	addi	a4,a4,-1
8000033e:	00eb2023          	sw	a4,0(s6)
80000342:	00ba2223          	sw	a1,4(s4)
80000346:	004ba583          	lw	a1,4(s7)
8000034a:	000ba703          	lw	a4,0(s7)
8000034e:	c3cc                	sw	a1,4(a5)
80000350:	00fba223          	sw	a5,4(s7)
80000354:	c394                	sw	a3,0(a5)
80000356:	00170793          	addi	a5,a4,1
8000035a:	00fba023          	sw	a5,0(s7)
8000035e:	4782                	lw	a5,0(sp)
80000360:	00cda223          	sw	a2,4(s11)
80000364:	01378963          	beq	a5,s3,80000376 <towers_solve_h+0x198>
80000368:	87da                	mv	a5,s6
8000036a:	8b6a                	mv	s6,s10
8000036c:	8d3e                	mv	s10,a5
8000036e:	bd65                	j	80000226 <towers_solve_h+0x48>
80000370:	004da603          	lw	a2,4(s11)
80000374:	4d22                	lw	s10,8(sp)
80000376:	004d2703          	lw	a4,4(s10)
8000037a:	000d2783          	lw	a5,0(s10)
8000037e:	4522                	lw	a0,8(sp)
80000380:	4354                	lw	a3,4(a4)
80000382:	430c                	lw	a1,0(a4)
80000384:	17fd                	addi	a5,a5,-1
80000386:	00dd2223          	sw	a3,4(s10)
8000038a:	004a2803          	lw	a6,4(s4)
8000038e:	00fd2023          	sw	a5,0(s10)
80000392:	000ba683          	lw	a3,0(s7)
80000396:	010a2223          	sw	a6,4(s4)
8000039a:	004ba783          	lw	a5,4(s7)
8000039e:	0685                	addi	a3,a3,1
800003a0:	4432                	lw	s0,12(sp)
800003a2:	c35c                	sw	a5,4(a4)
800003a4:	00eba223          	sw	a4,4(s7)
800003a8:	415c                	lw	a5,4(a0)
800003aa:	c30c                	sw	a1,0(a4)
800003ac:	00dba023          	sw	a3,0(s7)
800003b0:	43cc                	lw	a1,4(a5)
800003b2:	4118                	lw	a4,0(a0)
800003b4:	4394                	lw	a3,0(a5)
800003b6:	c14c                	sw	a1,4(a0)
800003b8:	004a2583          	lw	a1,4(s4)
800003bc:	177d                	addi	a4,a4,-1
800003be:	c118                	sw	a4,0(a0)
800003c0:	00ba2223          	sw	a1,4(s4)
800003c4:	404c                	lw	a1,4(s0)
800003c6:	4018                	lw	a4,0(s0)
800003c8:	0609                	addi	a2,a2,2
800003ca:	c3cc                	sw	a1,4(a5)
800003cc:	c05c                	sw	a5,4(s0)
800003ce:	c394                	sw	a3,0(a5)
800003d0:	00170793          	addi	a5,a4,1
800003d4:	c01c                	sw	a5,0(s0)
800003d6:	4792                	lw	a5,4(sp)
800003d8:	00cda223          	sw	a2,4(s11)
800003dc:	01378763          	beq	a5,s3,800003ea <towers_solve_h+0x20c>
800003e0:	c45e                	sw	s7,8(sp)
800003e2:	8baa                	mv	s7,a0
800003e4:	bd05                	j	80000214 <towers_solve_h+0x36>
800003e6:	4150                	lw	a2,4(a0)
800003e8:	4ba2                	lw	s7,8(sp)
800003ea:	004ba783          	lw	a5,4(s7)
800003ee:	000ba703          	lw	a4,0(s7)
800003f2:	4532                	lw	a0,12(sp)
800003f4:	43cc                	lw	a1,4(a5)
800003f6:	4394                	lw	a3,0(a5)
800003f8:	177d                	addi	a4,a4,-1
800003fa:	00bba223          	sw	a1,4(s7)
800003fe:	004a2583          	lw	a1,4(s4)
80000402:	00eba023          	sw	a4,0(s7)
80000406:	4118                	lw	a4,0(a0)
80000408:	00ba2223          	sw	a1,4(s4)
8000040c:	414c                	lw	a1,4(a0)
8000040e:	40b6                	lw	ra,76(sp)
80000410:	4426                	lw	s0,72(sp)
80000412:	c3cc                	sw	a1,4(a5)
80000414:	c15c                	sw	a5,4(a0)
80000416:	c394                	sw	a3,0(a5)
80000418:	0705                	addi	a4,a4,1
8000041a:	c118                	sw	a4,0(a0)
8000041c:	0605                	addi	a2,a2,1
8000041e:	00cda223          	sw	a2,4(s11)
80000422:	4496                	lw	s1,68(sp)
80000424:	4906                	lw	s2,64(sp)
80000426:	59f2                	lw	s3,60(sp)
80000428:	5a62                	lw	s4,56(sp)
8000042a:	5ad2                	lw	s5,52(sp)
8000042c:	5b42                	lw	s6,48(sp)
8000042e:	5bb2                	lw	s7,44(sp)
80000430:	5c22                	lw	s8,40(sp)
80000432:	5c92                	lw	s9,36(sp)
80000434:	5d02                	lw	s10,32(sp)
80000436:	4df2                	lw	s11,28(sp)
80000438:	6161                	addi	sp,sp,80
8000043a:	8082                	ret

8000043c <towers_solve>:
8000043c:	410c                	lw	a1,0(a0)
8000043e:	01850713          	addi	a4,a0,24
80000442:	01050693          	addi	a3,a0,16
80000446:	00850613          	addi	a2,a0,8
8000044a:	bb51                	j	800001de <towers_solve_h>

8000044c <towers_verify>:
8000044c:	451c                	lw	a5,8(a0)
8000044e:	862a                	mv	a2,a0
80000450:	e78d                	bnez	a5,8000047a <towers_verify+0x2e>
80000452:	4908                	lw	a0,16(a0)
80000454:	ed15                	bnez	a0,80000490 <towers_verify+0x44>
80000456:	420c                	lw	a1,0(a2)
80000458:	4e1c                	lw	a5,24(a2)
8000045a:	00b79e63          	bne	a5,a1,80000476 <towers_verify+0x2a>
8000045e:	4e5c                	lw	a5,28(a2)
80000460:	cf99                	beqz	a5,8000047e <towers_verify+0x32>
80000462:	4701                	li	a4,0
80000464:	a019                	j	8000046a <towers_verify+0x1e>
80000466:	43dc                	lw	a5,4(a5)
80000468:	cb99                	beqz	a5,8000047e <towers_verify+0x32>
8000046a:	4394                	lw	a3,0(a5)
8000046c:	0705                	addi	a4,a4,1
8000046e:	fed70ce3          	beq	a4,a3,80000466 <towers_verify+0x1a>
80000472:	4515                	li	a0,5
80000474:	8082                	ret
80000476:	4511                	li	a0,4
80000478:	8082                	ret
8000047a:	4509                	li	a0,2
8000047c:	8082                	ret
8000047e:	4785                	li	a5,1
80000480:	4258                	lw	a4,4(a2)
80000482:	00b797b3          	sll	a5,a5,a1
80000486:	17fd                	addi	a5,a5,-1
80000488:	fef706e3          	beq	a4,a5,80000474 <towers_verify+0x28>
8000048c:	4519                	li	a0,6
8000048e:	8082                	ret
80000490:	450d                	li	a0,3
80000492:	8082                	ret

Disassembly of section .text.startup:

80000494 <main>:
80000494:	7179                	addi	sp,sp,-48
80000496:	70040717          	auipc	a4,0x70040
8000049a:	ba270713          	addi	a4,a4,-1118 # f0040038 <g_nodeFreeList>
8000049e:	d606                	sw	ra,44(sp)
800004a0:	70040797          	auipc	a5,0x70040
800004a4:	b6078793          	addi	a5,a5,-1184 # f0040000 <g_nodePool>
800004a8:	469d                	li	a3,7
800004aa:	c35c                	sw	a5,4(a4)
800004ac:	c314                	sw	a3,0(a4)
800004ae:	70040717          	auipc	a4,0x70040
800004b2:	b8072323          	sw	zero,-1146(a4) # f0040034 <g_nodePool+0x34>
800004b6:	06300713          	li	a4,99
800004ba:	db98                	sw	a4,48(a5)
800004bc:	4619                	li	a2,6
800004be:	70040797          	auipc	a5,0x70040
800004c2:	b4a78793          	addi	a5,a5,-1206 # f0040008 <g_nodePool+0x8>
800004c6:	4701                	li	a4,0
800004c8:	fee7ac23          	sw	a4,-8(a5)
800004cc:	fef7ae23          	sw	a5,-4(a5)
800004d0:	0705                	addi	a4,a4,1
800004d2:	07a1                	addi	a5,a5,8
800004d4:	fec71ae3          	bne	a4,a2,800004c8 <main+0x34>
800004d8:	459d                	li	a1,7
800004da:	850a                	mv	a0,sp
800004dc:	3ee1                	jal	800000b4 <towers_init>
800004de:	850a                	mv	a0,sp
800004e0:	3fb1                	jal	8000043c <towers_solve>
800004e2:	850a                	mv	a0,sp
800004e4:	310d                	jal	80000106 <towers_clear>
800004e6:	850a                	mv	a0,sp
800004e8:	3f91                	jal	8000043c <towers_solve>
800004ea:	850a                	mv	a0,sp
800004ec:	3785                	jal	8000044c <towers_verify>
800004ee:	50b2                	lw	ra,44(sp)
800004f0:	6145                	addi	sp,sp,48
800004f2:	8082                	ret
