
riscv_loop_test_0.exe:     file format elf32-littleriscv


Disassembly of section .text:

80000000 <_start>:
80000000:	f14022f3          	csrr	t0,mhartid
80000004:	4301                	li	t1,0
80000006:	00628263          	beq	t0,t1,8000000a <_start+0xa>
8000000a:	00000f97          	auipc	t6,0x0
8000000e:	00cf8f93          	addi	t6,t6,12 # 80000016 <h0_start>
80000012:	000f8067          	jr	t6

80000016 <h0_start>:
80000016:	40001f37          	lui	t5,0x40001
8000001a:	104f0f13          	addi	t5,t5,260 # 40001104 <_start-0x3fffeefc>
8000001e:	301f1073          	csrw	misa,t5

80000022 <kernel_sp>:
80000022:	7004ee17          	auipc	t3,0x7004e
80000026:	c62e0e13          	addi	t3,t3,-926 # f004dc84 <kernel_stack_end>

8000002a <trap_vec_init>:
8000002a:	00000f17          	auipc	t5,0x0
8000002e:	18af0f13          	addi	t5,t5,394 # 800001b4 <mtvec_handler>
80000032:	000f6f13          	ori	t5,t5,0
80000036:	305f1073          	csrw	mtvec,t5

8000003a <mepc_setup>:
8000003a:	00000f17          	auipc	t5,0x0
8000003e:	020f0f13          	addi	t5,t5,32 # 8000005a <init>
80000042:	341f1073          	csrw	mepc,t5

80000046 <init_machine_mode>:
80000046:	6f09                	lui	t5,0x2
80000048:	e00f0f13          	addi	t5,t5,-512 # 1e00 <_start-0x7fffe200>
8000004c:	300f1073          	csrw	mstatus,t5
80000050:	4f01                	li	t5,0
80000052:	304f1073          	csrw	mie,t5
80000056:	30200073          	mret

8000005a <init>:
8000005a:	fe6a5037          	lui	zero,0xfe6a5
8000005e:	d5900013          	li	zero,-679
80000062:	caa2f0b7          	lui	ra,0xcaa2f
80000066:	29608093          	addi	ra,ra,662 # caa2f296 <STACK+0xda9e0606>
8000006a:	4101                	li	sp,0
8000006c:	4189                	li	gp,2
8000006e:	4221                	li	tp,8
80000070:	5c59a2b7          	lui	t0,0x5c59a
80000074:	ad328293          	addi	t0,t0,-1325 # 5c599ad3 <_start-0x23a6652d>
80000078:	4301                	li	t1,0
8000007a:	f3a2e3b7          	lui	t2,0xf3a2e
8000007e:	d3938393          	addi	t2,t2,-711 # f3a2dd39 <STACK+0x39df0a9>
80000082:	4435                	li	s0,13
80000084:	4499                	li	s1,6
80000086:	4501                	li	a0,0
80000088:	4625                	li	a2,9
8000008a:	297446b7          	lui	a3,0x29744
8000008e:	36768693          	addi	a3,a3,871 # 29744367 <_start-0x568bbc99>
80000092:	473d                	li	a4,15
80000094:	4781                	li	a5,0
80000096:	f5d74837          	lui	a6,0xf5d74
8000009a:	7a280813          	addi	a6,a6,1954 # f5d747a2 <STACK+0x5d25b12>
8000009e:	ad9278b7          	lui	a7,0xad927
800000a2:	e4888893          	addi	a7,a7,-440 # ad926e48 <STACK+0xbd8d81b8>
800000a6:	4919                	li	s2,6
800000a8:	49a9                	li	s3,10
800000aa:	67865a37          	lui	s4,0x67865
800000ae:	c76a0a13          	addi	s4,s4,-906 # 67864c76 <_start-0x1879b38a>
800000b2:	80000ab7          	lui	s5,0x80000
800000b6:	80000b37          	lui	s6,0x80000
800000ba:	4b81                	li	s7,0
800000bc:	f5f50c37          	lui	s8,0xf5f50
800000c0:	179c0c13          	addi	s8,s8,377 # f5f50179 <STACK+0x5f014e9>
800000c4:	4c9d                	li	s9,7
800000c6:	80000d37          	lui	s10,0x80000
800000ca:	4d81                	li	s11,0
800000cc:	33328eb7          	lui	t4,0x33328
800000d0:	8e4e8e93          	addi	t4,t4,-1820 # 333278e4 <_start-0x4ccd871c>
800000d4:	80000f37          	lui	t5,0x80000
800000d8:	4f81                	li	t6,0
800000da:	70047597          	auipc	a1,0x70047
800000de:	d8a58593          	addi	a1,a1,-630 # f0046e64 <user_stack_end>

800000e2 <main>:
800000e2:	cc86da17          	auipc	s4,0xcc86d
800000e6:	00396033          	or	zero,s2,gp
800000ea:	1e10                	addi	a2,sp,816
800000ec:	07404b63          	bgtz	s4,80000162 <main_0_0_t+0x60>
800000f0:	10fd                	addi	ra,ra,-1
800000f2:	8cbd                	xor	s1,s1,a5
800000f4:	004d5893          	srli	a7,s10,0x4
800000f8:	9822                	add	a6,a6,s0
800000fa:	5ed48413          	addi	s0,s1,1517
800000fe:	41c00bb3          	neg	s7,t3

80000102 <main_0_0_t>:
80000102:	0155f0b3          	and	ra,a1,s5
80000106:	02000033          	mul	zero,zero,zero
8000010a:	26942d93          	slti	s11,s0,617
8000010e:	01123633          	sltu	a2,tp,a7
80000112:	8d51                	or	a0,a0,a2
80000114:	5c89e893          	ori	a7,s3,1480
80000118:	00e53233          	sltu	tp,a0,a4
8000011c:	03cb6db3          	rem	s11,s6,t3
80000120:	808e                	mv	ra,gp
80000122:	00625413          	srli	s0,tp,0x6
80000126:	6f79a293          	slti	t0,s3,1783
8000012a:	03404c63          	bgtz	s4,80000162 <main_0_0_t+0x60>
8000012e:	3ef47213          	andi	tp,s0,1007
80000132:	0089                	addi	ra,ra,2
80000134:	0001                	nop
80000136:	fd4746e3          	blt	a4,s4,80000102 <main_0_0_t>
8000013a:	6175                	addi	sp,sp,368
8000013c:	86b1                	srai	a3,a3,0xc
8000013e:	6be0b013          	sltiu	zero,ra,1726
80000142:	8e51                	or	a2,a2,a2
80000144:	01362d33          	slt	s10,a2,s3
80000148:	00b213b3          	sll	t2,tp,a1
8000014c:	042b9163          	bne	s7,sp,8000018e <main_0_0_t+0x8c>
80000150:	00afd613          	srli	a2,t6,0xa
80000154:	02470033          	mul	zero,a4,tp
80000158:	8cbd                	xor	s1,s1,a5
8000015a:	01761263          	bne	a2,s7,8000015e <main_0_0_t+0x5c>
8000015e:	00c608b3          	add	a7,a2,a2
80000162:	01196cb3          	or	s9,s2,a7
80000166:	e299                	bnez	a3,8000016c <main_0_0_t+0x6a>
80000168:	0365c563          	blt	a1,s6,80000192 <main_0_0_t+0x90>
8000016c:	00317a33          	and	s4,sp,gp
80000170:	00b99393          	slli	t2,s3,0xb
80000174:	1e7d6693          	ori	a3,s10,487
80000178:	0391dab3          	divu	s5,gp,s9
8000017c:	0001                	nop
8000017e:	8eb1                	xor	a3,a3,a2
80000180:	032e                	slli	t1,t1,0xb
80000182:	01ecc633          	xor	a2,s9,t5
80000186:	01da5933          	srl	s2,s4,t4
8000018a:	016209b3          	add	s3,tp,s6
8000018e:	8c09                	sub	s0,s0,a0
80000190:	9c46                	add	s8,s8,a7
80000192:	02870c33          	mul	s8,a4,s0
80000196:	00000f97          	auipc	t6,0x0
8000019a:	00cf8f93          	addi	t6,t6,12 # 800001a2 <test_done>
8000019e:	000f8067          	jr	t6

800001a2 <test_done>:
800001a2:	4185                	li	gp,1
800001a4:	00000073          	ecall

800001a8 <write_tohost>:
800001a8:	70040f17          	auipc	t5,0x70040
800001ac:	e43f2c23          	sw	gp,-424(t5) # f0040000 <tohost>

800001b0 <_exit>:
800001b0:	bfe5                	j	800001a8 <write_tohost>

800001b2 <instr_end>:
800001b2:	0001                	nop

800001b4 <mtvec_handler>:
800001b4:	340595f3          	csrrw	a1,mscratch,a1
800001b8:	000e05b3          	add	a1,t3,zero
800001bc:	f8458593          	addi	a1,a1,-124
800001c0:	0015a223          	sw	ra,4(a1)
800001c4:	0025a423          	sw	sp,8(a1)
800001c8:	0035a623          	sw	gp,12(a1)
800001cc:	0045a823          	sw	tp,16(a1)
800001d0:	0055aa23          	sw	t0,20(a1)
800001d4:	0065ac23          	sw	t1,24(a1)
800001d8:	0075ae23          	sw	t2,28(a1)
800001dc:	d180                	sw	s0,32(a1)
800001de:	d1c4                	sw	s1,36(a1)
800001e0:	d588                	sw	a0,40(a1)
800001e2:	d5cc                	sw	a1,44(a1)
800001e4:	d990                	sw	a2,48(a1)
800001e6:	d9d4                	sw	a3,52(a1)
800001e8:	dd98                	sw	a4,56(a1)
800001ea:	dddc                	sw	a5,60(a1)
800001ec:	0505a023          	sw	a6,64(a1)
800001f0:	0515a223          	sw	a7,68(a1)
800001f4:	0525a423          	sw	s2,72(a1)
800001f8:	0535a623          	sw	s3,76(a1)
800001fc:	0545a823          	sw	s4,80(a1)
80000200:	0555aa23          	sw	s5,84(a1)
80000204:	0565ac23          	sw	s6,88(a1)
80000208:	0575ae23          	sw	s7,92(a1)
8000020c:	0785a023          	sw	s8,96(a1)
80000210:	0795a223          	sw	s9,100(a1)
80000214:	07a5a423          	sw	s10,104(a1)
80000218:	07b5a623          	sw	s11,108(a1)
8000021c:	07c5a823          	sw	t3,112(a1)
80000220:	07d5aa23          	sw	t4,116(a1)
80000224:	07e5ac23          	sw	t5,120(a1)
80000228:	07f5ae23          	sw	t6,124(a1)
8000022c:	30002f73          	csrr	t5,mstatus
80000230:	34202f73          	csrr	t5,mcause
80000234:	01ff5f13          	srli	t5,t5,0x1f
80000238:	140f1263          	bnez	t5,8000037c <mmode_intr_handler>

8000023c <mmode_exception_handler>:
8000023c:	34102f73          	csrr	t5,mepc
80000240:	34202f73          	csrr	t5,mcause
80000244:	43ad                	li	t2,11
80000246:	007f0d63          	beq	t5,t2,80000260 <ecall_handler>
8000024a:	4389                	li	t2,2
8000024c:	0a7f0463          	beq	t5,t2,800002f4 <illegal_instr_handler>
80000250:	343023f3          	csrr	t2,mtval
80000254:	00000f97          	auipc	t6,0x0
80000258:	f4ef8f93          	addi	t6,t6,-178 # 800001a2 <test_done>
8000025c:	000f80e7          	jalr	t6

80000260 <ecall_handler>:
80000260:	00000f17          	auipc	t5,0x0
80000264:	da0f0f13          	addi	t5,t5,-608 # 80000000 <_start>
80000268:	000f2023          	sw	zero,0(t5)
8000026c:	001f2223          	sw	ra,4(t5)
80000270:	002f2423          	sw	sp,8(t5)
80000274:	003f2623          	sw	gp,12(t5)
80000278:	004f2823          	sw	tp,16(t5)
8000027c:	005f2a23          	sw	t0,20(t5)
80000280:	006f2c23          	sw	t1,24(t5)
80000284:	007f2e23          	sw	t2,28(t5)
80000288:	028f2023          	sw	s0,32(t5)
8000028c:	029f2223          	sw	s1,36(t5)
80000290:	02af2423          	sw	a0,40(t5)
80000294:	02bf2623          	sw	a1,44(t5)
80000298:	02cf2823          	sw	a2,48(t5)
8000029c:	02df2a23          	sw	a3,52(t5)
800002a0:	02ef2c23          	sw	a4,56(t5)
800002a4:	02ff2e23          	sw	a5,60(t5)
800002a8:	050f2023          	sw	a6,64(t5)
800002ac:	051f2223          	sw	a7,68(t5)
800002b0:	052f2423          	sw	s2,72(t5)
800002b4:	053f2623          	sw	s3,76(t5)
800002b8:	054f2823          	sw	s4,80(t5)
800002bc:	055f2a23          	sw	s5,84(t5)
800002c0:	056f2c23          	sw	s6,88(t5)
800002c4:	057f2e23          	sw	s7,92(t5)
800002c8:	078f2023          	sw	s8,96(t5)
800002cc:	079f2223          	sw	s9,100(t5)
800002d0:	07af2423          	sw	s10,104(t5)
800002d4:	07bf2623          	sw	s11,108(t5)
800002d8:	07cf2823          	sw	t3,112(t5)
800002dc:	07df2a23          	sw	t4,116(t5)
800002e0:	07ef2c23          	sw	t5,120(t5)
800002e4:	07ff2e23          	sw	t6,124(t5)
800002e8:	00000f97          	auipc	t6,0x0
800002ec:	ec0f8f93          	addi	t6,t6,-320 # 800001a8 <write_tohost>
800002f0:	000f8067          	jr	t6

800002f4 <illegal_instr_handler>:
800002f4:	34102f73          	csrr	t5,mepc
800002f8:	0f11                	addi	t5,t5,4
800002fa:	341f1073          	csrw	mepc,t5
800002fe:	0045a083          	lw	ra,4(a1)
80000302:	0085a103          	lw	sp,8(a1)
80000306:	00c5a183          	lw	gp,12(a1)
8000030a:	0105a203          	lw	tp,16(a1)
8000030e:	0145a283          	lw	t0,20(a1)
80000312:	0185a303          	lw	t1,24(a1)
80000316:	01c5a383          	lw	t2,28(a1)
8000031a:	5180                	lw	s0,32(a1)
8000031c:	51c4                	lw	s1,36(a1)
8000031e:	5588                	lw	a0,40(a1)
80000320:	55cc                	lw	a1,44(a1)
80000322:	5990                	lw	a2,48(a1)
80000324:	59d4                	lw	a3,52(a1)
80000326:	5d98                	lw	a4,56(a1)
80000328:	5ddc                	lw	a5,60(a1)
8000032a:	0405a803          	lw	a6,64(a1)
8000032e:	0445a883          	lw	a7,68(a1)
80000332:	0485a903          	lw	s2,72(a1)
80000336:	04c5a983          	lw	s3,76(a1)
8000033a:	0505aa03          	lw	s4,80(a1)
8000033e:	0545aa83          	lw	s5,84(a1)
80000342:	0585ab03          	lw	s6,88(a1)
80000346:	05c5ab83          	lw	s7,92(a1)
8000034a:	0605ac03          	lw	s8,96(a1)
8000034e:	0645ac83          	lw	s9,100(a1)
80000352:	0685ad03          	lw	s10,104(a1)
80000356:	06c5ad83          	lw	s11,108(a1)
8000035a:	0705ae03          	lw	t3,112(a1)
8000035e:	0745ae83          	lw	t4,116(a1)
80000362:	0785af03          	lw	t5,120(a1)
80000366:	07c5af83          	lw	t6,124(a1)
8000036a:	07c58593          	addi	a1,a1,124
8000036e:	00058e33          	add	t3,a1,zero
80000372:	340595f3          	csrrw	a1,mscratch,a1
80000376:	30200073          	mret

8000037a <pt_fault_handler>:
8000037a:	0001                	nop

8000037c <mmode_intr_handler>:
8000037c:	30002f73          	csrr	t5,mstatus
80000380:	30402f73          	csrr	t5,mie
80000384:	34402f73          	csrr	t5,mip
80000388:	344f3f73          	csrrc	t5,mip,t5
8000038c:	0045a083          	lw	ra,4(a1)
80000390:	0085a103          	lw	sp,8(a1)
80000394:	00c5a183          	lw	gp,12(a1)
80000398:	0105a203          	lw	tp,16(a1)
8000039c:	0145a283          	lw	t0,20(a1)
800003a0:	0185a303          	lw	t1,24(a1)
800003a4:	01c5a383          	lw	t2,28(a1)
800003a8:	5180                	lw	s0,32(a1)
800003aa:	51c4                	lw	s1,36(a1)
800003ac:	5588                	lw	a0,40(a1)
800003ae:	55cc                	lw	a1,44(a1)
800003b0:	5990                	lw	a2,48(a1)
800003b2:	59d4                	lw	a3,52(a1)
800003b4:	5d98                	lw	a4,56(a1)
800003b6:	5ddc                	lw	a5,60(a1)
800003b8:	0405a803          	lw	a6,64(a1)
800003bc:	0445a883          	lw	a7,68(a1)
800003c0:	0485a903          	lw	s2,72(a1)
800003c4:	04c5a983          	lw	s3,76(a1)
800003c8:	0505aa03          	lw	s4,80(a1)
800003cc:	0545aa83          	lw	s5,84(a1)
800003d0:	0585ab03          	lw	s6,88(a1)
800003d4:	05c5ab83          	lw	s7,92(a1)
800003d8:	0605ac03          	lw	s8,96(a1)
800003dc:	0645ac83          	lw	s9,100(a1)
800003e0:	0685ad03          	lw	s10,104(a1)
800003e4:	06c5ad83          	lw	s11,108(a1)
800003e8:	0705ae03          	lw	t3,112(a1)
800003ec:	0745ae83          	lw	t4,116(a1)
800003f0:	0785af03          	lw	t5,120(a1)
800003f4:	07c5af83          	lw	t6,124(a1)
800003f8:	07c58593          	addi	a1,a1,124
800003fc:	00058e33          	add	t3,a1,zero
80000400:	340595f3          	csrrw	a1,mscratch,a1
80000404:	30200073          	mret

80000408 <kernel_instr_end>:
80000408:	0001                	nop
8000040a:	0001                	nop

8000040c <kernel_data_start>:
	...
